(lp0
(I0
I21
I22
tp1
a(I0
I24
I25
tp2
a(I0
I53
I54
tp3
a(I0
I56
I57
tp4
a(I0
I75
I76
tp5
a(I0
I78
I79
tp6
a(I0
I83
I85
tp7
a(I0
I87
I88
tp8
a(I0
I98
I99
tp9
a(I0
I103
I105
tp10
a(I0
I111
I112
tp11
a(I0
I120
I121
tp12
a(I0
I127
I130
tp13
a(I0
I132
I138
tp14
a(I0
I144
I145
tp15
a(I0
I147
I148
tp16
a(I0
I156
I158
tp17
a(I0
I170
I171
tp18
a(I0
I173
I176
tp19
a(I0
I182
I183
tp20
a(I0
I185
I187
tp21
a(I0
I189
I190
tp22
a(I0
I200
I201
tp23
a(I0
I205
I206
tp24
a(I0
I220
I221
tp25
a(I0
I225
I228
tp26
a(I0
I232
I233
tp27
a(I0
I253
I254
tp28
a(I0
I258
I259
tp29
a(I0
I273
I274
tp30
a(I0
I276
I280
tp31
a(I0
I282
I283
tp32
a(I0
I285
I286
tp33
a(I0
I288
I290
tp34
a(I0
I292
I293
tp35
a(I0
I301
I302
tp36
a(I0
I306
I307
tp37
a(I0
I317
I318
tp38
a(I0
I330
I331
tp39
a(I0
I335
I336
tp40
a(I0
I344
I345
tp41
a(I0
I369
I374
tp42
a(I0
I376
I377
tp43
a(I0
I379
I380
tp44
a(I0
I382
I384
tp45
a(I0
I386
I389
tp46
a(I0
I395
I396
tp47
a(I0
I398
I399
tp48
a(I0
I403
I404
tp49
a(I0
I406
I407
tp50
a(I0
I415
I417
tp51
a(I0
I427
I428
tp52
a(I0
I440
I441
tp53
a(I0
I449
I451
tp54
a(I0
I467
I471
tp55
a(I0
I473
I474
tp56
a(I0
I478
I480
tp57
a(I0
I486
I487
tp58
a(I0
I489
I490
tp59
a(I0
I508
I510
tp60
a(I0
I512
I513
tp61
a(I0
I525
I526
tp62
a(I0
I540
I542
tp63
a(I0
I548
I549
tp64
a(I0
I565
I566
tp65
a(I0
I568
I571
tp66
a(I0
I577
I579
tp67
a(I0
I589
I590
tp68
a(I0
I594
I595
tp69
a(I0
I601
I602
tp70
a(I0
I604
I605
tp71
a(I0
I625
I626
tp72
a(I0
I630
I632
tp73
a(I0
I636
I638
tp74
a(I0
I652
I655
tp75
a(I0
I657
I660
tp76
a(I0
I668
I670
tp77
a(I0
I672
I673
tp78
a(I0
I-1
I687
tp79
a(I1
I3
I9
tp80
a(I1
I13
I14
tp81
a(I1
I22
I23
tp82
a(I1
I25
I27
tp83
a(I1
I31
I32
tp84
a(I1
I34
I45
tp85
a(I1
I47
I64
tp86
a(I1
I66
I102
tp87
a(I1
I104
I184
tp88
a(I1
I186
I236
tp89
a(I1
I238
I259
tp90
a(I1
I261
I303
tp91
a(I1
I305
I372
tp92
a(I1
I374
I420
tp93
a(I1
I422
I479
tp94
a(I1
I481
I498
tp95
a(I1
I500
I503
tp96
a(I1
I505
I509
tp97
a(I1
I511
I512
tp98
a(I1
I522
I523
tp99
a(I1
I525
I547
tp100
a(I1
I549
I564
tp101
a(I1
I566
I580
tp102
a(I1
I582
I604
tp103
a(I1
I610
I631
tp104
a(I1
I633
I641
tp105
a(I1
I645
I647
tp106
a(I1
I649
I650
tp107
a(I1
I652
I654
tp108
a(I1
I658
I692
tp109
a(I1
I694
I709
tp110
a(I1
I711
I723
tp111
a(I1
I725
I738
tp112
a(I1
I740
I753
tp113
a(I1
I755
I756
tp114
a(I1
I758
I792
tp115
a(I1
I794
I814
tp116
a(I1
I818
I821
tp117
a(I1
I823
I912
tp118
a(I1
I916
I921
tp119
a(I1
I923
I975
tp120
a(I1
I979
I988
tp121
a(I1
I990
I998
tp122
a(I1
I1000
I1034
tp123
a(I1
I1036
I1075
tp124
a(I1
I1079
I1088
tp125
a(I1
I1090
I1101
tp126
a(I1
I1103
I1143
tp127
a(I1
I1147
I1174
tp128
a(I1
I1176
I1187
tp129
a(I1
I1191
I1198
tp130
a(I1
I1200
I1251
tp131
a(I1
I1255
I1259
tp132
a(I1
I1261
I1278
tp133
a(I1
I1282
I1290
tp134
a(I1
I1292
I1294
tp135
a(I1
I1296
I1310
tp136
a(I1
I1312
I1334
tp137
a(I1
I1336
I1385
tp138
a(I1
I1387
I1424
tp139
a(I1
I1426
I1437
tp140
a(I1
I1441
I1446
tp141
a(I1
I1448
I1451
tp142
a(I1
I1453
I1477
tp143
a(I1
I1479
I1492
tp144
a(I1
I1496
I1497
tp145
a(I1
I1499
I1502
tp146
a(I1
I1504
I1519
tp147
a(I1
I1521
I1545
tp148
a(I1
I1547
I1568
tp149
a(I1
I1574
I1584
tp150
a(I1
I1588
I1592
tp151
a(I1
I1594
I1615
tp152
a(I1
I1617
I1647
tp153
a(I1
I1651
I1659
tp154
a(I1
I1661
I1672
tp155
a(I1
I1674
I1696
tp156
a(I1
I1698
I1706
tp157
a(I1
I1708
I1737
tp158
a(I1
I1739
I1765
tp159
a(I1
I1769
I1782
tp160
a(I1
I1784
I1792
tp161
a(I1
I1794
I1806
tp162
a(I1
I1808
I1823
tp163
a(I1
I1825
I1841
tp164
a(I1
I1843
I1854
tp165
a(I1
I1856
I1897
tp166
a(I1
I1899
I1921
tp167
a(I1
I1923
I1924
tp168
a(I1
I1926
I1944
tp169
a(I1
I1946
I1976
tp170
a(I1
I1978
I1986
tp171
a(I1
I1990
I1993
tp172
a(I1
I1995
I2010
tp173
a(I1
I2012
I2014
tp174
a(I1
I2016
I2032
tp175
a(I1
I2034
I2041
tp176
a(I1
I2043
I2062
tp177
a(I1
I2064
I2075
tp178
a(I1
I2077
I2082
tp179
a(I1
I2086
I2093
tp180
a(I1
I2095
I2100
tp181
a(I1
I2102
I2124
tp182
a(I1
I2126
I2151
tp183
a(I1
I2153
I2174
tp184
a(I1
I2176
I2193
tp185
a(I1
I2197
I2205
tp186
a(I1
I2207
I2251
tp187
a(I1
I2253
I2279
tp188
a(I1
I2281
I2307
tp189
a(I1
I2309
I2319
tp190
a(I1
I2325
I2346
tp191
a(I1
I2350
I2358
tp192
a(I1
I2360
I2362
tp193
a(I1
I2364
I2365
tp194
a(I1
I2367
I2382
tp195
a(I1
I2384
I2410
tp196
a(I1
I2412
I2430
tp197
a(I1
I2432
I2444
tp198
a(I1
I2446
I2447
tp199
a(I1
I2449
I2479
tp200
a(I1
I2481
I2512
tp201
a(I1
I2514
I2545
tp202
a(I1
I2547
I2555
tp203
a(I1
I2557
I2591
tp204
a(I1
I2593
I2614
tp205
a(I1
I2618
I2626
tp206
a(I1
I2628
I2633
tp207
a(I1
I2635
I2674
tp208
a(I1
I2676
I2751
tp209
a(I1
I2753
I2755
tp210
a(I1
I2759
I2797
tp211
a(I1
I2799
I2810
tp212
a(I1
I2812
I2876
tp213
a(I1
I2878
I2880
tp214
a(I1
I2882
I2885
tp215
a(I1
I2887
I2910
tp216
a(I1
I2912
I2923
tp217
a(I1
I2925
I2930
tp218
a(I1
I2932
I2935
tp219
a(I1
I2937
I2958
tp220
a(I1
I2960
I3009
tp221
a(I1
I3013
I3018
tp222
a(I1
I3020
I3033
tp223
a(I1
I3035
I3091
tp224
a(I1
I3093
I3099
tp225
a(I1
I3101
I3120
tp226
a(I1
I3122
I3139
tp227
a(I1
I3141
I3199
tp228
a(I1
I3203
I3205
tp229
a(I1
I3207
I3210
tp230
a(I1
I3212
I3241
tp231
a(I1
I3243
I3261
tp232
a(I1
I3263
I3270
tp233
a(I1
I3274
I3281
tp234
a(I1
I3283
I3291
tp235
a(I1
I3295
I3334
tp236
a(I1
I3338
I3354
tp237
a(I1
I3356
I3381
tp238
a(I1
I3383
I3417
tp239
a(I1
I3419
I3421
tp240
a(I1
I3423
I3449
tp241
a(I1
I3451
I3464
tp242
a(I1
I3466
I3467
tp243
a(I1
I3469
I3494
tp244
a(I1
I3496
I3497
tp245
a(I1
I3499
I3540
tp246
a(I1
I3544
I3550
tp247
a(I1
I3552
I3553
tp248
a(I1
I3555
I3569
tp249
a(I1
I3571
I3573
tp250
a(I1
I3575
I3591
tp251
a(I1
I3593
I3595
tp252
a(I1
I3597
I3627
tp253
a(I1
I3629
I3659
tp254
a(I1
I3665
I3683
tp255
a(I1
I3687
I3690
tp256
a(I1
I3692
I3700
tp257
a(I1
I3702
I3729
tp258
a(I1
I3731
I3756
tp259
a(I1
I3758
I3763
tp260
a(I1
I3765
I3802
tp261
a(I1
I3804
I3814
tp262
a(I1
I3816
I3827
tp263
a(I1
I3829
I3846
tp264
a(I1
I3848
I3856
tp265
a(I1
I3858
I3889
tp266
a(I1
I3891
I3894
tp267
a(I1
I3896
I3904
tp268
a(I1
I3906
I3914
tp269
a(I1
I3916
I3917
tp270
a(I1
I3919
I3926
tp271
a(I1
I3928
I3950
tp272
a(I1
I3952
I3982
tp273
a(I1
I3984
I4005
tp274
a(I1
I4007
I4009
tp275
a(I1
I4011
I4012
tp276
a(I1
I4014
I4069
tp277
a(I1
I4071
I4089
tp278
a(I1
I4093
I4099
tp279
a(I1
I4101
I4105
tp280
a(I1
I4107
I4118
tp281
a(I1
I4120
I4144
tp282
a(I1
I4146
I4179
tp283
a(I1
I4181
I4182
tp284
a(I1
I4184
I4193
tp285
a(I1
I4195
I4232
tp286
a(I1
I4234
I4237
tp287
a(I1
I4241
I4248
tp288
a(I1
I4252
I4308
tp289
a(I1
I4310
I4334
tp290
a(I1
I4338
I4343
tp291
a(I1
I4345
I4346
tp292
a(I1
I4348
I4363
tp293
a(I1
I4365
I4366
tp294
a(I1
I4368
I4381
tp295
a(I1
I4383
I4409
tp296
a(I1
I4411
I4420
tp297
a(I1
I4424
I4430
tp298
a(I1
I4432
I4433
tp299
a(I1
I4435
I4444
tp300
a(I1
I4446
I4480
tp301
a(I1
I4482
I4485
tp302
a(I1
I4487
I4536
tp303
a(I1
I4538
I4540
tp304
a(I1
I4544
I4548
tp305
a(I1
I4550
I4560
tp306
a(I1
I4562
I4589
tp307
a(I1
I4591
I4616
tp308
a(I1
I4622
I4637
tp309
a(I1
I4641
I4648
tp310
a(I1
I4650
I4657
tp311
a(I1
I4659
I4689
tp312
a(I1
I4691
I4707
tp313
a(I1
I4709
I4716
tp314
a(I1
I4718
I4735
tp315
a(I1
I4737
I4741
tp316
a(I1
I4743
I4758
tp317
a(I1
I4760
I4764
tp318
a(I1
I4766
I4775
tp319
a(I1
I4777
I4809
tp320
a(I1
I4813
I4817
tp321
a(I1
I4819
I4827
tp322
a(I1
I4829
I4831
tp323
a(I1
I4833
I4862
tp324
a(I1
I4864
I4868
tp325
a(I1
I4870
I4874
tp326
a(I1
I4876
I4880
tp327
a(I1
I4882
I4898
tp328
a(I1
I4900
I4927
tp329
a(I1
I4929
I4932
tp330
a(I1
I4934
I4958
tp331
a(I1
I4962
I4969
tp332
a(I1
I4971
I4972
tp333
a(I1
I4974
I5001
tp334
a(I1
I5003
I5014
tp335
a(I1
I5020
I5032
tp336
a(I1
I5036
I5039
tp337
a(I1
I5041
I5080
tp338
a(I1
I5082
I5084
tp339
a(I1
I5086
I5095
tp340
a(I1
I5097
I5105
tp341
a(I1
I5107
I5116
tp342
a(I1
I5118
I5126
tp343
a(I1
I5128
I5133
tp344
a(I1
I5135
I5140
tp345
a(I1
I5142
I5154
tp346
a(I1
I5156
I5201
tp347
a(I1
I5205
I5209
tp348
a(I1
I5211
I5247
tp349
a(I1
I5249
I5281
tp350
a(I1
I5283
I5286
tp351
a(I1
I5288
I5342
tp352
a(I1
I5346
I5348
tp353
a(I1
I5350
I5381
tp354
a(I1
I5385
I5406
tp355
a(I1
I5408
I5414
tp356
a(I1
I5416
I5426
tp357
a(I1
I5428
I5438
tp358
a(I1
I5440
I5460
tp359
a(I1
I5462
I5476
tp360
a(I1
I5478
I5486
tp361
a(I1
I5488
I5519
tp362
a(I1
I5521
I5531
tp363
a(I1
I5533
I5564
tp364
a(I1
I5568
I5610
tp365
a(I1
I5616
I5637
tp366
a(I1
I5641
I5649
tp367
a(I1
I5651
I5652
tp368
a(I1
I5654
I5684
tp369
a(I1
I5686
I5707
tp370
a(I1
I5709
I5738
tp371
a(I1
I5740
I5759
tp372
a(I1
I5763
I5771
tp373
a(I1
I5773
I5802
tp374
a(I1
I5804
I5807
tp375
a(I1
I5809
I5810
tp376
a(I1
I5812
I5825
tp377
a(I1
I5827
I5829
tp378
a(I1
I5833
I5841
tp379
a(I1
I5843
I5879
tp380
a(I1
I5881
I5906
tp381
a(I1
I5908
I5916
tp382
a(I1
I5918
I5920
tp383
a(I1
I5922
I5925
tp384
a(I1
I5927
I5931
tp385
a(I1
I5933
I5941
tp386
a(I1
I5943
I5956
tp387
a(I1
I5958
I5981
tp388
a(I1
I5983
I5989
tp389
a(I1
I5993
I6001
tp390
a(I1
I6003
I6022
tp391
a(I1
I6024
I6032
tp392
a(I1
I6034
I6042
tp393
a(I1
I6044
I6048
tp394
a(I1
I6050
I6078
tp395
a(I1
I6080
I6117
tp396
a(I1
I6119
I6130
tp397
a(I1
I6132
I6154
tp398
a(I1
I6160
I6181
tp399
a(I1
I6185
I6190
tp400
a(I1
I6192
I6224
tp401
a(I1
I6226
I6227
tp402
a(I1
I6229
I6242
tp403
a(I1
I6244
I6266
tp404
a(I1
I6268
I6271
tp405
a(I1
I6273
I6293
tp406
a(I1
I6295
I6308
tp407
a(I1
I6310
I6311
tp408
a(I1
I6313
I6322
tp409
a(I1
I6324
I6365
tp410
a(I1
I6367
I6372
tp411
a(I1
I6374
I6399
tp412
a(I1
I6401
I6409
tp413
a(I1
I6411
I6437
tp414
a(I1
I6439
I6455
tp415
a(I1
I6459
I6466
tp416
a(I1
I6468
I6500
tp417
a(I1
I6502
I6504
tp418
a(I1
I6506
I6515
tp419
a(I1
I6517
I6521
tp420
a(I1
I6523
I6562
tp421
a(I1
I6564
I6587
tp422
a(I1
I6593
I6611
tp423
a(I1
I6615
I6628
tp424
a(I1
I6630
I6643
tp425
a(I1
I6645
I6647
tp426
a(I1
I6651
I6670
tp427
a(I1
I6672
I6690
tp428
a(I1
I6692
I6708
tp429
a(I1
I6710
I6720
tp430
a(I1
I6722
I6743
tp431
a(I1
I6745
I6749
tp432
a(I1
I6751
I6758
tp433
a(I1
I6760
I6798
tp434
a(I1
I6802
I6809
tp435
a(I1
I6811
I6827
tp436
a(I1
I6829
I6855
tp437
a(I1
I6857
I6869
tp438
a(I1
I6871
I6915
tp439
a(I1
I6919
I6928
tp440
a(I1
I6930
I6954
tp441
a(I1
I6956
I6997
tp442
a(I1
I6999
I7018
tp443
a(I1
I7020
I7028
tp444
a(I1
I7032
I7037
tp445
a(I1
I7039
I7043
tp446
a(I1
I7045
I7046
tp447
a(I1
I7048
I7075
tp448
a(I1
I7079
I7109
tp449
a(I1
I7111
I7158
tp450
a(I1
I7160
I7162
tp451
a(I1
I7164
I7174
tp452
a(I1
I7180
I7194
tp453
a(I1
I7198
I7205
tp454
a(I1
I7207
I7223
tp455
a(I1
I7225
I7236
tp456
a(I1
I7238
I7254
tp457
a(I1
I7256
I7282
tp458
a(I1
I7284
I7297
tp459
a(I1
I7299
I7314
tp460
a(I1
I7316
I7324
tp461
a(I1
I7326
I7347
tp462
a(I1
I7349
I7364
tp463
a(I1
I7366
I7367
tp464
a(I1
I7369
I7370
tp465
a(I1
I7372
I7394
tp466
a(I1
I7396
I7411
tp467
a(I1
I7413
I7424
tp468
a(I1
I7430
I7439
tp469
a(I1
I7443
I7450
tp470
a(I1
I7452
I7467
tp471
a(I1
I7469
I7483
tp472
a(I1
I7485
I7495
tp473
a(I1
I7497
I7504
tp474
a(I1
I7506
I7517
tp475
a(I1
I7519
I7526
tp476
a(I1
I7528
I7534
tp477
a(I1
I7536
I7549
tp478
a(I1
I7551
I7569
tp479
a(I1
I7571
I7580
tp480
a(I1
I7582
I7584
tp481
a(I1
I7586
I7608
tp482
a(I1
I7610
I7613
tp483
a(I1
I7615
I7624
tp484
a(I1
I7626
I7628
tp485
a(I1
I7630
I7656
tp486
a(I1
I7658
I7689
tp487
a(I1
I7691
I7696
tp488
a(I1
I7698
I7729
tp489
a(I1
I7731
I7741
tp490
a(I1
I7743
I7767
tp491
a(I1
I7769
I7788
tp492
a(I1
I7790
I7821
tp493
a(I1
I7825
I7835
tp494
a(I1
I7837
I7838
tp495
a(I1
I7840
I7845
tp496
a(I1
I7847
I7871
tp497
a(I1
I7873
I7881
tp498
a(I1
I7887
I7894
tp499
a(I1
I7898
I7903
tp500
a(I1
I7905
I7930
tp501
a(I1
I7934
I7964
tp502
a(I1
I7966
I7980
tp503
a(I1
I7982
I7986
tp504
a(I1
I7988
I8002
tp505
a(I1
I8004
I8009
tp506
a(I1
I8011
I8019
tp507
a(I1
I8021
I8029
tp508
a(I1
I8031
I8043
tp509
a(I1
I8045
I8062
tp510
a(I1
I8066
I8071
tp511
a(I1
I8073
I8080
tp512
a(I1
I8082
I8085
tp513
a(I1
I8089
I8101
tp514
a(I1
I8103
I8113
tp515
a(I1
I8115
I8125
tp516
a(I1
I8127
I8138
tp517
a(I1
I8142
I8150
tp518
a(I1
I8152
I8159
tp519
a(I1
I8161
I8179
tp520
a(I1
I8181
I8187
tp521
a(I1
I8189
I8211
tp522
a(I1
I8213
I8244
tp523
a(I1
I8248
I8256
tp524
a(I1
I8258
I8278
tp525
a(I1
I8280
I8298
tp526
a(I1
I8300
I8322
tp527
a(I1
I8326
I8338
tp528
a(I1
I8340
I8360
tp529
a(I1
I8362
I8367
tp530
a(I1
I8369
I8380
tp531
a(I1
I8384
I8398
tp532
a(I1
I8400
I8429
tp533
a(I1
I8431
I8438
tp534
a(I1
I8444
I8453
tp535
a(I1
I8457
I8463
tp536
a(I1
I8465
I8468
tp537
a(I1
I8470
I8487
tp538
a(I1
I8489
I8502
tp539
a(I1
I8504
I8513
tp540
a(I1
I8517
I8527
tp541
a(I1
I8529
I8531
tp542
a(I1
I8533
I8558
tp543
a(I1
I8560
I8568
tp544
a(I1
I8570
I8581
tp545
a(I1
I8583
I8587
tp546
a(I1
I8589
I8598
tp547
a(I1
I8600
I8619
tp548
a(I1
I8621
I8649
tp549
a(I1
I8653
I8660
tp550
a(I1
I8662
I8670
tp551
a(I1
I8672
I8696
tp552
a(I1
I8698
I8724
tp553
a(I1
I8728
I8737
tp554
a(I1
I8739
I8740
tp555
a(I1
I8742
I8765
tp556
a(I1
I8767
I8769
tp557
a(I1
I8771
I8801
tp558
a(I1
I8803
I8812
tp559
a(I1
I8814
I8823
tp560
a(I1
I8829
I8836
tp561
a(I1
I8840
I8863
tp562
a(I1
I8865
I8869
tp563
a(I1
I8871
I8882
tp564
a(I1
I8884
I8900
tp565
a(I1
I8902
I8942
tp566
a(I1
I8946
I8955
tp567
a(I1
I8957
I8962
tp568
a(I1
I8964
I8977
tp569
a(I1
I8979
I9001
tp570
a(I1
I9003
I9013
tp571
a(I1
I9015
I9033
tp572
a(I1
I9035
I9040
tp573
a(I1
I9042
I9060
tp574
a(I1
I9062
I9074
tp575
a(I1
I9078
I9085
tp576
a(I1
I9087
I9090
tp577
a(I1
I9092
I9121
tp578
a(I1
I9123
I9135
tp579
a(I1
I9137
I9159
tp580
a(I1
I9161
I9176
tp581
a(I1
I9180
I9187
tp582
a(I1
I9189
I9192
tp583
a(I1
I9194
I9207
tp584
a(I1
I9209
I9218
tp585
a(I1
I9220
I9247
tp586
a(I1
I9249
I9262
tp587
a(I1
I9264
I9282
tp588
a(I1
I9288
I9304
tp589
a(I1
I9308
I9310
tp590
a(I1
I9312
I9322
tp591
a(I1
I9324
I9329
tp592
a(I1
I9333
I9337
tp593
a(I1
I9339
I9348
tp594
a(I1
I9350
I9365
tp595
a(I1
I9367
I9376
tp596
a(I1
I9378
I9379
tp597
a(I1
I9381
I9443
tp598
a(I1
I9445
I9467
tp599
a(I1
I9469
I9498
tp600
a(I1
I9500
I9508
tp601
a(I1
I9510
I9511
tp602
a(I1
I9513
I9521
tp603
a(I1
I9523
I9528
tp604
a(I1
I9530
I9550
tp605
a(I1
I9552
I9562
tp606
a(I1
I9564
I9582
tp607
a(I1
I9584
I9617
tp608
a(I1
I9619
I9627
tp609
a(I1
I9629
I9630
tp610
a(I1
I9632
I9642
tp611
a(I1
I9644
I9671
tp612
a(I1
I9675
I9681
tp613
a(I1
I9683
I9697
tp614
a(I1
I9699
I9706
tp615
a(I1
I9708
I9721
tp616
a(I1
I9723
I9733
tp617
a(I1
I9735
I9757
tp618
a(I1
I9759
I9766
tp619
a(I1
I9768
I9782
tp620
a(I1
I9784
I9796
tp621
a(I1
I9798
I9805
tp622
a(I1
I9807
I9809
tp623
a(I1
I9811
I9816
tp624
a(I1
I9818
I9829
tp625
a(I1
I9831
I9843
tp626
a(I1
I9845
I9848
tp627
a(I1
I9850
I9858
tp628
a(I1
I9860
I9881
tp629
a(I1
I9887
I9895
tp630
a(I1
I9899
I9905
tp631
a(I1
I9907
I9914
tp632
a(I1
I9916
I9926
tp633
a(I1
I9930
I9938
tp634
a(I1
I9940
I9945
tp635
a(I1
I9947
I9956
tp636
a(I1
I9958
I9969
tp637
a(I1
I9971
I9977
tp638
a(I1
I9979
I9983
tp639
a(I1
I9985
I10000
tp640
a(I1
I10002
I10019
tp641
a(I1
I10021
I10045
tp642
a(I1
I10047
I10052
tp643
a(I1
I10054
I10057
tp644
a(I1
I10059
I10071
tp645
a(I1
I10075
I10083
tp646
a(I1
I10085
I10096
tp647
a(I1
I10098
I10104
tp648
a(I1
I10106
I10113
tp649
a(I1
I10117
I10126
tp650
a(I1
I10128
I10133
tp651
a(I1
I10135
I10190
tp652
a(I1
I10192
I10193
tp653
a(I1
I10195
I10215
tp654
a(I1
I10217
I10240
tp655
a(I1
I10242
I10253
tp656
a(I1
I10257
I10259
tp657
a(I1
I10261
I10271
tp658
a(I1
I10277
I10296
tp659
a(I1
I10300
I10304
tp660
a(I1
I10306
I10319
tp661
a(I1
I10321
I10325
tp662
a(I1
I10327
I10344
tp663
a(I1
I10346
I10349
tp664
a(I1
I10351
I10369
tp665
a(I1
I10371
I10386
tp666
a(I1
I10388
I10392
tp667
a(I1
I10394
I10398
tp668
a(I1
I10400
I10413
tp669
a(I1
I10415
I10434
tp670
a(I1
I10436
I10454
tp671
a(I1
I10456
I10467
tp672
a(I1
I10469
I10495
tp673
a(I1
I10497
I10546
tp674
a(I1
I10548
I10564
tp675
a(I1
I10566
I10578
tp676
a(I1
I10580
I10585
tp677
a(I1
I10587
I10603
tp678
a(I1
I10605
I10626
tp679
a(I1
I10628
I10629
tp680
a(I1
I10631
I10641
tp681
a(I1
I10643
I10665
tp682
a(I1
I10669
I10678
tp683
a(I1
I10680
I10709
tp684
a(I1
I10715
I10723
tp685
a(I1
I10727
I10742
tp686
a(I1
I10744
I10749
tp687
a(I1
I10751
I10771
tp688
a(I1
I10773
I10814
tp689
a(I1
I10816
I10828
tp690
a(I1
I10830
I10834
tp691
a(I1
I10836
I10855
tp692
a(I1
I10857
I10871
tp693
a(I1
I10873
I10895
tp694
a(I1
I10897
I10920
tp695
a(I1
I10922
I10936
tp696
a(I1
I10940
I10953
tp697
a(I1
I10955
I10972
tp698
a(I1
I10974
I10978
tp699
a(I1
I10980
I10985
tp700
a(I1
I10987
I10999
tp701
a(I1
I11001
I11011
tp702
a(I1
I11013
I11044
tp703
a(I1
I11046
I11066
tp704
a(I1
I11070
I11093
tp705
a(I1
I11095
I11101
tp706
a(I1
I11103
I11110
tp707
a(I1
I11112
I11129
tp708
a(I1
I11133
I11136
tp709
a(I1
I11138
I11147
tp710
a(I1
I11149
I11152
tp711
a(I1
I11154
I11160
tp712
a(I1
I11164
I11175
tp713
a(I1
I11177
I11188
tp714
a(I1
I11190
I11196
tp715
a(I1
I11198
I11205
tp716
a(I1
I11207
I11223
tp717
a(I1
I11225
I11236
tp718
a(I1
I11242
I11257
tp719
a(I1
I11261
I11269
tp720
a(I1
I11271
I11303
tp721
a(I1
I11305
I11321
tp722
a(I1
I11323
I11325
tp723
a(I1
I11327
I11333
tp724
a(I1
I11335
I11382
tp725
a(I1
I11384
I11407
tp726
a(I1
I11411
I11418
tp727
a(I1
I11422
I11426
tp728
a(I1
I11428
I11441
tp729
a(I1
I11443
I11458
tp730
a(I1
I11460
I11479
tp731
a(I1
I11481
I11487
tp732
a(I1
I11489
I11504
tp733
a(I1
I11506
I11520
tp734
a(I1
I11522
I11545
tp735
a(I1
I11547
I11549
tp736
a(I1
I11553
I11556
tp737
a(I1
I11558
I11602
tp738
a(I1
I11604
I11605
tp739
a(I1
I11607
I11611
tp740
a(I1
I11613
I11631
tp741
a(I1
I11633
I11646
tp742
a(I1
I11648
I11654
tp743
a(I1
I11656
I11660
tp744
a(I1
I11662
I11679
tp745
a(I1
I11681
I11691
tp746
a(I1
I11695
I11714
tp747
a(I1
I11716
I11744
tp748
a(I1
I11746
I11747
tp749
a(I1
I11749
I11775
tp750
a(I1
I11777
I11791
tp751
a(I1
I11793
I11794
tp752
a(I1
I11798
I11804
tp753
a(I1
I11806
I11815
tp754
a(I1
I11817
I11823
tp755
a(I1
I11829
I11843
tp756
a(I1
I11847
I11850
tp757
a(I1
I11852
I11882
tp758
a(I1
I11884
I11895
tp759
a(I1
I11897
I11903
tp760
a(I1
I11905
I11911
tp761
a(I1
I11913
I11922
tp762
a(I1
I11926
I11930
tp763
a(I1
I11932
I11944
tp764
a(I1
I11946
I11965
tp765
a(I1
I11969
I11982
tp766
a(I1
I11984
I11986
tp767
a(I1
I11988
I11992
tp768
a(I1
I11996
I12029
tp769
a(I1
I12033
I12048
tp770
a(I1
I12050
I12056
tp771
a(I1
I12058
I12071
tp772
a(I1
I12073
I12082
tp773
a(I1
I12084
I12106
tp774
a(I1
I12108
I12118
tp775
a(I1
I12124
I12127
tp776
a(I1
I12131
I12142
tp777
a(I1
I12144
I12151
tp778
a(I1
I12153
I12171
tp779
a(I1
I12175
I12193
tp780
a(I1
I12195
I12199
tp781
a(I1
I12203
I12213
tp782
a(I1
I12215
I12234
tp783
a(I1
I12236
I12251
tp784
a(I1
I12255
I12263
tp785
a(I1
I12267
I12290
tp786
a(I1
I12292
I12307
tp787
a(I1
I12309
I12318
tp788
a(I1
I12320
I12354
tp789
a(I1
I12358
I12374
tp790
a(I1
I12376
I12391
tp791
a(I1
I12393
I12394
tp792
a(I1
I12396
I12406
tp793
a(I1
I12408
I12446
tp794
a(I1
I12448
I12459
tp795
a(I1
I12463
I12482
tp796
a(I1
I12484
I12487
tp797
a(I1
I12489
I12490
tp798
a(I1
I12492
I12503
tp799
a(I1
I12505
I12518
tp800
a(I1
I12520
I12521
tp801
a(I1
I12523
I12530
tp802
a(I1
I12532
I12549
tp803
a(I1
I12551
I12556
tp804
a(I1
I12558
I12564
tp805
a(I1
I12566
I12568
tp806
a(I1
I12570
I12589
tp807
a(I1
I12595
I12603
tp808
a(I1
I12607
I12611
tp809
a(I1
I12613
I12617
tp810
a(I1
I12619
I12625
tp811
a(I1
I12627
I12636
tp812
a(I1
I12638
I12651
tp813
a(I1
I12653
I12672
tp814
a(I1
I12674
I12677
tp815
a(I1
I12679
I12683
tp816
a(I1
I12687
I12703
tp817
a(I1
I12705
I12706
tp818
a(I1
I12708
I12744
tp819
a(I1
I12746
I12748
tp820
a(I1
I12750
I12755
tp821
a(I1
I12757
I12760
tp822
a(I1
I12762
I12765
tp823
a(I1
I12767
I12772
tp824
a(I1
I12774
I12782
tp825
a(I1
I12784
I12790
tp826
a(I1
I12792
I12793
tp827
a(I1
I12795
I12817
tp828
a(I1
I12819
I12831
tp829
a(I1
I12833
I12879
tp830
a(I1
I12883
I12892
tp831
a(I1
I12894
I12901
tp832
a(I1
I12903
I12913
tp833
a(I1
I12915
I12925
tp834
a(I1
I12927
I12945
tp835
a(I1
I12947
I12961
tp836
a(I1
I12965
I12974
tp837
a(I1
I12976
I13033
tp838
a(I1
I13035
I13041
tp839
a(I1
I13043
I13050
tp840
a(I1
I13056
I13061
tp841
a(I1
I13065
I13068
tp842
a(I1
I13070
I13093
tp843
a(I1
I13097
I13122
tp844
a(I1
I13124
I13153
tp845
a(I1
I13155
I13166
tp846
a(I1
I13168
I13180
tp847
a(I1
I13182
I13191
tp848
a(I1
I13193
I13211
tp849
a(I1
I13213
I13232
tp850
a(I1
I13236
I13247
tp851
a(I1
I13249
I13296
tp852
a(I1
I13302
I13319
tp853
a(I1
I13323
I13341
tp854
a(I1
I13345
I13373
tp855
a(I1
I13375
I13400
tp856
a(I1
I13402
I13421
tp857
a(I1
I13425
I13463
tp858
a(I1
I13465
I13474
tp859
a(I1
I13476
I13490
tp860
a(I1
I13492
I13497
tp861
a(I1
I13499
I13534
tp862
a(I1
I13536
I13585
tp863
a(I1
I13587
I13623
tp864
a(I1
I13625
I13626
tp865
a(I1
I13628
I13681
tp866
a(I1
I13683
I13695
tp867
a(I1
I13697
I13717
tp868
a(I1
I13719
I13720
tp869
a(I1
I13722
I13726
tp870
a(I1
I13728
I13731
tp871
a(I1
I13733
I13741
tp872
a(I1
I13743
I13766
tp873
a(I1
I13768
I13780
tp874
a(I1
I13782
I13787
tp875
a(I1
I13789
I13800
tp876
a(I1
I13802
I13814
tp877
a(I1
I13818
I13832
tp878
a(I1
I13834
I13889
tp879
a(I1
I13893
I13903
tp880
a(I1
I13907
I13936
tp881
a(I1
I13938
I13951
tp882
a(I1
I13953
I13968
tp883
a(I1
I13974
I13982
tp884
a(I1
I13986
I14001
tp885
a(I1
I14003
I14008
tp886
a(I1
I14010
I14020
tp887
a(I1
I14022
I14048
tp888
a(I1
I14050
I14070
tp889
a(I1
I14072
I14082
tp890
a(I1
I14086
I14099
tp891
a(I1
I14101
I14138
tp892
a(I1
I14142
I14160
tp893
a(I1
I14162
I14168
tp894
a(I1
I14170
I14198
tp895
a(I1
I14200
I14205
tp896
a(I1
I14207
I14234
tp897
a(I1
I14236
I14243
tp898
a(I1
I14245
I14257
tp899
a(I1
I14259
I14262
tp900
a(I1
I14264
I14277
tp901
a(I1
I14279
I14286
tp902
a(I1
I14288
I14307
tp903
a(I1
I14309
I14321
tp904
a(I1
I14325
I14333
tp905
a(I1
I14335
I14340
tp906
a(I1
I14342
I14365
tp907
a(I1
I14367
I14380
tp908
a(I1
I14382
I14410
tp909
a(I1
I14412
I14439
tp910
a(I1
I14441
I14454
tp911
a(I1
I14460
I14470
tp912
a(I1
I14474
I14484
tp913
a(I1
I14486
I14496
tp914
a(I1
I14498
I14541
tp915
a(I1
I14545
I14558
tp916
a(I1
I14560
I14565
tp917
a(I1
I14567
I14579
tp918
a(I1
I14581
I14603
tp919
a(I1
I14607
I14633
tp920
a(I1
I14637
I14650
tp921
a(I1
I14652
I14679
tp922
a(I1
I14683
I14691
tp923
a(I1
I14693
I14699
tp924
a(I1
I14701
I14705
tp925
a(I1
I14707
I14717
tp926
a(I1
I14719
I14731
tp927
a(I1
I14733
I14756
tp928
a(I1
I14760
I14774
tp929
a(I1
I14776
I14777
tp930
a(I1
I14779
I14783
tp931
a(I1
I14785
I14790
tp932
a(I1
I14792
I14821
tp933
a(I1
I14823
I14830
tp934
a(I1
I14832
I14839
tp935
a(I1
I14843
I14845
tp936
a(I1
I14847
I14863
tp937
a(I1
I14869
I14886
tp938
a(I1
I14890
I14898
tp939
a(I1
I14900
I14914
tp940
a(I1
I14916
I14921
tp941
a(I1
I14923
I14934
tp942
a(I1
I14936
I14957
tp943
a(I1
I14959
I14978
tp944
a(I1
I14980
I14981
tp945
a(I1
I14983
I14987
tp946
a(I1
I14989
I15054
tp947
a(I1
I15058
I15081
tp948
a(I1
I15083
I15104
tp949
a(I1
I15106
I15107
tp950
a(I1
I15109
I15117
tp951
a(I1
I15119
I15166
tp952
a(I1
I15170
I15196
tp953
a(I1
I15198
I15270
tp954
a(I1
I15274
I15288
tp955
a(I1
I15292
I15303
tp956
a(I1
I15305
I15323
tp957
a(I1
I15327
I15341
tp958
a(I1
I15343
I15369
tp959
a(I1
I15373
I15397
tp960
a(I1
I15399
I15422
tp961
a(I1
I15428
I15435
tp962
a(I1
I15439
I15449
tp963
a(I1
I15451
I15471
tp964
a(I1
I15473
I15483
tp965
a(I1
I15485
I15497
tp966
a(I1
I15499
I15511
tp967
a(I1
I15513
I15528
tp968
a(I1
I15530
I15544
tp969
a(I1
I15546
I15554
tp970
a(I1
I15556
I15589
tp971
a(I1
I15593
I15608
tp972
a(I1
I15610
I15617
tp973
a(I1
I15619
I15638
tp974
a(I1
I15640
I15647
tp975
a(I1
I15649
I15690
tp976
a(I1
I15692
I15695
tp977
a(I1
I15697
I15714
tp978
a(I1
I15716
I15736
tp979
a(I1
I15740
I15752
tp980
a(I1
I15754
I15760
tp981
a(I1
I15762
I15774
tp982
a(I1
I15776
I15798
tp983
a(I1
I15800
I15819
tp984
a(I1
I15821
I15879
tp985
a(I1
I15885
I15895
tp986
a(I1
I15899
I15914
tp987
a(I1
I15916
I15966
tp988
a(I1
I15970
I15982
tp989
a(I1
I15984
I16019
tp990
a(I1
I16023
I16047
tp991
a(I1
I16049
I16075
tp992
a(I1
I16077
I16091
tp993
a(I1
I16093
I16109
tp994
a(I1
I16111
I16154
tp995
a(I1
I16158
I16168
tp996
a(I1
I16170
I16218
tp997
a(I1
I16224
I16239
tp998
a(I1
I16243
I16260
tp999
a(I1
I16262
I16263
tp1000
a(I1
I16265
I16269
tp1001
a(I1
I16271
I16298
tp1002
a(I1
I16300
I16331
tp1003
a(I1
I16335
I16354
tp1004
a(I1
I16356
I16378
tp1005
a(I1
I16380
I16399
tp1006
a(I1
I16401
I16454
tp1007
a(I1
I16456
I16472
tp1008
a(I1
I16476
I16502
tp1009
a(I1
I16506
I16533
tp1010
a(I1
I16535
I16562
tp1011
a(I1
I16564
I16571
tp1012
a(I1
I16573
I16586
tp1013
a(I1
I16588
I16619
tp1014
a(I1
I16623
I16638
tp1015
a(I1
I16640
I16678
tp1016
a(I1
I16684
I16691
tp1017
a(I1
I16695
I16724
tp1018
a(I1
I16726
I16729
tp1019
a(I1
I16731
I16733
tp1020
a(I1
I16735
I16758
tp1021
a(I1
I16760
I16768
tp1022
a(I1
I16770
I16809
tp1023
a(I1
I16813
I16846
tp1024
a(I1
I16848
I16863
tp1025
a(I1
I16865
I16878
tp1026
a(I1
I16880
I16911
tp1027
a(I1
I16913
I16940
tp1028
a(I1
I16944
I16969
tp1029
a(I1
I16971
I16973
tp1030
a(I1
I16977
I17020
tp1031
a(I1
I17022
I17031
tp1032
a(I1
I17033
I17051
tp1033
a(I1
I17053
I17066
tp1034
a(I1
I17068
I17084
tp1035
a(I1
I17088
I17097
tp1036
a(I1
I17099
I17104
tp1037
a(I1
I17106
I17122
tp1038
a(I1
I17124
I17137
tp1039
a(I1
I17139
I17150
tp1040
a(I1
I17154
I17179
tp1041
a(I1
I17181
I17187
tp1042
a(I1
I17189
I17201
tp1043
a(I1
I17203
I17208
tp1044
a(I1
I17210
I17224
tp1045
a(I1
I17226
I17271
tp1046
a(I1
I17273
I17279
tp1047
a(I1
I17285
I17292
tp1048
a(I1
I17296
I17298
tp1049
a(I1
I17300
I17348
tp1050
a(I1
I17350
I17361
tp1051
a(I1
I17363
I17370
tp1052
a(I1
I17372
I17397
tp1053
a(I1
I17399
I17435
tp1054
a(I1
I17437
I17444
tp1055
a(I1
I17448
I17457
tp1056
a(I1
I17459
I17475
tp1057
a(I1
I17477
I17485
tp1058
a(I1
I17487
I17492
tp1059
a(I1
I17494
I17502
tp1060
a(I1
I17504
I17513
tp1061
a(I1
I17515
I17543
tp1062
a(I1
I17545
I17559
tp1063
a(I1
I17561
I17568
tp1064
a(I1
I17570
I17585
tp1065
a(I1
I17589
I17609
tp1066
a(I1
I17611
I17621
tp1067
a(I1
I17623
I17647
tp1068
a(I1
I17649
I17662
tp1069
a(I1
I17666
I17682
tp1070
a(I1
I17684
I17700
tp1071
a(I1
I17702
I17714
tp1072
a(I1
I17716
I17828
tp1073
a(I1
I17834
I17844
tp1074
a(I1
I17848
I17855
tp1075
a(I1
I17857
I17866
tp1076
a(I1
I17868
I17879
tp1077
a(I1
I17881
I17882
tp1078
a(I1
I17884
I17896
tp1079
a(I1
I17898
I17918
tp1080
a(I1
I17920
I17924
tp1081
a(I1
I17926
I17949
tp1082
a(I1
I17951
I17953
tp1083
a(I1
I17955
I17976
tp1084
a(I1
I17980
I17997
tp1085
a(I1
I17999
I18030
tp1086
a(I1
I18032
I18081
tp1087
a(I1
I18083
I18091
tp1088
a(I1
I18093
I18129
tp1089
a(I1
I18135
I18151
tp1090
a(I1
I18155
I18163
tp1091
a(I1
I18165
I18216
tp1092
a(I1
I18220
I18242
tp1093
a(I1
I18244
I18259
tp1094
a(I1
I18261
I18263
tp1095
a(I1
I18265
I18272
tp1096
a(I1
I18274
I18310
tp1097
a(I1
I18312
I18326
tp1098
a(I1
I18328
I18359
tp1099
a(I1
I18363
I18378
tp1100
a(I1
I18380
I18382
tp1101
a(I1
I18384
I18387
tp1102
a(I1
I18389
I18428
tp1103
a(I1
I18430
I18443
tp1104
a(I1
I18445
I18484
tp1105
a(I1
I18490
I18500
tp1106
a(I1
I18504
I18515
tp1107
a(I1
I18517
I18543
tp1108
a(I1
I18545
I18576
tp1109
a(I1
I18578
I18594
tp1110
a(I1
I18596
I18610
tp1111
a(I1
I18614
I18631
tp1112
a(I1
I18633
I18634
tp1113
a(I1
I18636
I18650
tp1114
a(I1
I18652
I18668
tp1115
a(I1
I18670
I18703
tp1116
a(I1
I18705
I18720
tp1117
a(I1
I18724
I18732
tp1118
a(I1
I18734
I18795
tp1119
a(I1
I18799
I18812
tp1120
a(I1
I18814
I18862
tp1121
a(I1
I18868
I18888
tp1122
a(I1
I18892
I18905
tp1123
a(I1
I18907
I18942
tp1124
a(I1
I18946
I18966
tp1125
a(I1
I18968
I18996
tp1126
a(I1
I18998
I19013
tp1127
a(I1
I19015
I19035
tp1128
a(I1
I19037
I19056
tp1129
a(I1
I19058
I19094
tp1130
a(I1
I19100
I19118
tp1131
a(I1
I19122
I19130
tp1132
a(I1
I19132
I19174
tp1133
a(I1
I19176
I19190
tp1134
a(I1
I19192
I19213
tp1135
a(I1
I19215
I19228
tp1136
a(I1
I19230
I19243
tp1137
a(I1
I19245
I19265
tp1138
a(I1
I19267
I19296
tp1139
a(I1
I19298
I19324
tp1140
a(I1
I19326
I19351
tp1141
a(I1
I19353
I19369
tp1142
a(I1
I19371
I19437
tp1143
a(I1
I19439
I19450
tp1144
a(I1
I19452
I19511
tp1145
a(I1
I19513
I19525
tp1146
a(I1
I19531
I19548
tp1147
a(I1
I19552
I19570
tp1148
a(I1
I19572
I19628
tp1149
a(I1
I19630
I19655
tp1150
a(I1
I19657
I19662
tp1151
a(I1
I19664
I19688
tp1152
a(I1
I19690
I19714
tp1153
a(I1
I19716
I19735
tp1154
a(I1
I19739
I19755
tp1155
a(I1
I19757
I19770
tp1156
a(I1
I19772
I19790
tp1157
a(I1
I19792
I19813
tp1158
a(I1
I19819
I19831
tp1159
a(I1
I19835
I19849
tp1160
a(I1
I19851
I19861
tp1161
a(I1
I19863
I19864
tp1162
a(I1
I19866
I19884
tp1163
a(I1
I19886
I19903
tp1164
a(I1
I19905
I19912
tp1165
a(I1
I19914
I19926
tp1166
a(I1
I19928
I19933
tp1167
a(I1
I19935
I19943
tp1168
a(I1
I19945
I19962
tp1169
a(I1
I19964
I19968
tp1170
a(I1
I19970
I19987
tp1171
a(I1
I19989
I19991
tp1172
a(I1
I19993
I20030
tp1173
a(I1
I20032
I20040
tp1174
a(I1
I20042
I20052
tp1175
a(I1
I20054
I20092
tp1176
a(I1
I20094
I20104
tp1177
a(I1
I20106
I20143
tp1178
a(I1
I20149
I20156
tp1179
a(I1
I20160
I20167
tp1180
a(I1
I20169
I20186
tp1181
a(I1
I20188
I20219
tp1182
a(I1
I20221
I20229
tp1183
a(I1
I20231
I20238
tp1184
a(I1
I20240
I20254
tp1185
a(I1
I20256
I20295
tp1186
a(I1
I20297
I20318
tp1187
a(I1
I20320
I20326
tp1188
a(I1
I20328
I20368
tp1189
a(I1
I20370
I20383
tp1190
a(I1
I20389
I20400
tp1191
a(I1
I20404
I20419
tp1192
a(I1
I20421
I20453
tp1193
a(I1
I20457
I20472
tp1194
a(I1
I20474
I20517
tp1195
a(I1
I20521
I20548
tp1196
a(I1
I20550
I20560
tp1197
a(I1
I20562
I20602
tp1198
a(I1
I20606
I20631
tp1199
a(I1
I20633
I20651
tp1200
a(I1
I20653
I20705
tp1201
a(I1
I20709
I20732
tp1202
a(I1
I20734
I20752
tp1203
a(I1
I20754
I20776
tp1204
a(I1
I20778
I20797
tp1205
a(I1
I20803
I20818
tp1206
a(I1
I20822
I20832
tp1207
a(I1
I20834
I20836
tp1208
a(I1
I20838
I20874
tp1209
a(I1
I20876
I20886
tp1210
a(I1
I20890
I20913
tp1211
a(I1
I20915
I20933
tp1212
a(I1
I20935
I20961
tp1213
a(I1
I20963
I20969
tp1214
a(I1
I20971
I20974
tp1215
a(I1
I20976
I20985
tp1216
a(I1
I20989
I21006
tp1217
a(I1
I21008
I21012
tp1218
a(I1
I21014
I21033
tp1219
a(I1
I21035
I21044
tp1220
a(I1
I21046
I21052
tp1221
a(I1
I21054
I21059
tp1222
a(I1
I21061
I21067
tp1223
a(I1
I21069
I21078
tp1224
a(I1
I21080
I21090
tp1225
a(I1
I21094
I21115
tp1226
a(I1
I21117
I21159
tp1227
a(I1
I21165
I21169
tp1228
a(I1
I21173
I21191
tp1229
a(I1
I21193
I21220
tp1230
a(I1
I21224
I21232
tp1231
a(I1
I21234
I21247
tp1232
a(I1
I21249
I21278
tp1233
a(I1
I21280
I21285
tp1234
a(I1
I21287
I21292
tp1235
a(I1
I21296
I21319
tp1236
a(I1
I21321
I21371
tp1237
a(I1
I21373
I21392
tp1238
a(I1
I21394
I21401
tp1239
a(I1
I21403
I21404
tp1240
a(I1
I21406
I21410
tp1241
a(I1
I21412
I21427
tp1242
a(I1
I21429
I21431
tp1243
a(I1
I21433
I21445
tp1244
a(I1
I21447
I21450
tp1245
a(I1
I21452
I21473
tp1246
a(I1
I21479
I21489
tp1247
a(I1
I21493
I21525
tp1248
a(I1
I21527
I21539
tp1249
a(I1
I21541
I21549
tp1250
a(I1
I21551
I21555
tp1251
a(I1
I21557
I21564
tp1252
a(I1
I21566
I21579
tp1253
a(I1
I21581
I21598
tp1254
a(I1
I21602
I21633
tp1255
a(I1
I21635
I21646
tp1256
a(I1
I21648
I21705
tp1257
a(I1
I21707
I21715
tp1258
a(I1
I21717
I21739
tp1259
a(I1
I21745
I21761
tp1260
a(I1
I21765
I21795
tp1261
a(I1
I21797
I21799
tp1262
a(I1
I21801
I21806
tp1263
a(I1
I21808
I21816
tp1264
a(I1
I21818
I21836
tp1265
a(I1
I21838
I21882
tp1266
a(I1
I21884
I21908
tp1267
a(I1
I21910
I21921
tp1268
a(I1
I21925
I21942
tp1269
a(I1
I21944
I21964
tp1270
a(I1
I21966
I22008
tp1271
a(I1
I22012
I22019
tp1272
a(I1
I22021
I22059
tp1273
a(I1
I22065
I22068
tp1274
a(I1
I22072
I22079
tp1275
a(I1
I22081
I22087
tp1276
a(I1
I22089
I22120
tp1277
a(I1
I22122
I22131
tp1278
a(I1
I22133
I22136
tp1279
a(I1
I22138
I22161
tp1280
a(I1
I22163
I22189
tp1281
a(I1
I22193
I22230
tp1282
a(I1
I22232
I22277
tp1283
a(I1
I22281
I22296
tp1284
a(I1
I22298
I22299
tp1285
a(I1
I22301
I22305
tp1286
a(I1
I22307
I22322
tp1287
a(I1
I22324
I22335
tp1288
a(I1
I22337
I22373
tp1289
a(I1
I22379
I22387
tp1290
a(I1
I22391
I22417
tp1291
a(I1
I22419
I22425
tp1292
a(I1
I22427
I22428
tp1293
a(I1
I22430
I22435
tp1294
a(I1
I22437
I22460
tp1295
a(I1
I22462
I22469
tp1296
a(I1
I22475
I22483
tp1297
a(I1
I22485
I22517
tp1298
a(I1
I22519
I22531
tp1299
a(I1
I22533
I22540
tp1300
a(I1
I22544
I22580
tp1301
a(I1
I22582
I22595
tp1302
a(I1
I22597
I22617
tp1303
a(I1
I22619
I22647
tp1304
a(I1
I22649
I22690
tp1305
a(I1
I22692
I22698
tp1306
a(I1
I22702
I22712
tp1307
a(I1
I22714
I22759
tp1308
a(I1
I22765
I22777
tp1309
a(I1
I22781
I22797
tp1310
a(I1
I22799
I22816
tp1311
a(I1
I22818
I22826
tp1312
a(I1
I22828
I22880
tp1313
a(I1
I22884
I22917
tp1314
a(I1
I22919
I22923
tp1315
a(I1
I22925
I22933
tp1316
a(I1
I22935
I22953
tp1317
a(I1
I22955
I22975
tp1318
a(I1
I22977
I22987
tp1319
a(I1
I22989
I23020
tp1320
a(I1
I23022
I23050
tp1321
a(I1
I23056
I23069
tp1322
a(I1
I23073
I23080
tp1323
a(I1
I23082
I23110
tp1324
a(I1
I23112
I23159
tp1325
a(I1
I23161
I23166
tp1326
a(I1
I23168
I23224
tp1327
a(I1
I23226
I23235
tp1328
a(I1
I23237
I23315
tp1329
a(I1
I23317
I23328
tp1330
a(I1
I23332
I23345
tp1331
a(I1
I23347
I23366
tp1332
a(I1
I23368
I23384
tp1333
a(I1
I23386
I23410
tp1334
a(I1
I23412
I23429
tp1335
a(I1
I23431
I23440
tp1336
a(I1
I23442
I23460
tp1337
a(I1
I23462
I23475
tp1338
a(I1
I23477
I23478
tp1339
a(I1
I23480
I23488
tp1340
a(I1
I23490
I23529
tp1341
a(I1
I23531
I23575
tp1342
a(I1
I23577
I23596
tp1343
a(I1
I23600
I23612
tp1344
a(I1
I23614
I23621
tp1345
a(I1
I23623
I23650
tp1346
a(I1
I23652
I23667
tp1347
a(I1
I23673
I23678
tp1348
a(I1
I23682
I23694
tp1349
a(I1
I23696
I23756
tp1350
a(I1
I23758
I23775
tp1351
a(I1
I23777
I23808
tp1352
a(I1
I23812
I23825
tp1353
a(I1
I23827
I23836
tp1354
a(I1
I23838
I23873
tp1355
a(I1
I23875
I23915
tp1356
a(I1
I23919
I23928
tp1357
a(I1
I23930
I23934
tp1358
a(I1
I23936
I23941
tp1359
a(I1
I23943
I23978
tp1360
a(I1
I23980
I23990
tp1361
a(I1
I23992
I23993
tp1362
a(I1
I24003
I24004
tp1363
a(I1
I24006
I24044
tp1364
a(I1
I24050
I24054
tp1365
a(I1
I24058
I24066
tp1366
a(I1
I24068
I24119
tp1367
a(I1
I24121
I24134
tp1368
a(I1
I24136
I24144
tp1369
a(I1
I24146
I24163
tp1370
a(I1
I24165
I24187
tp1371
a(I1
I24189
I24221
tp1372
a(I1
I24223
I24232
tp1373
a(I1
I24234
I24249
tp1374
a(I1
I24251
I24272
tp1375
a(I1
I24274
I24332
tp1376
a(I1
I24334
I24342
tp1377
a(I1
I24348
I24363
tp1378
a(I1
I24367
I24373
tp1379
a(I1
I24375
I24381
tp1380
a(I1
I24383
I24432
tp1381
a(I1
I24434
I24451
tp1382
a(I1
I24455
I24468
tp1383
a(I1
I24470
I24496
tp1384
a(I1
I24498
I24510
tp1385
a(I1
I24512
I24534
tp1386
a(I1
I24536
I24543
tp1387
a(I1
I24547
I24558
tp1388
a(I1
I24560
I24562
tp1389
a(I1
I24564
I24580
tp1390
a(I1
I24582
I24589
tp1391
a(I1
I24591
I24606
tp1392
a(I1
I24608
I24611
tp1393
a(I1
I24613
I24622
tp1394
a(I1
I24624
I24643
tp1395
a(I1
I24645
I24699
tp1396
a(I1
I24701
I24735
tp1397
a(I1
I24739
I24750
tp1398
a(I1
I24752
I24758
tp1399
a(I1
I24760
I24772
tp1400
a(I1
I24774
I24830
tp1401
a(I1
I24834
I24839
tp1402
a(I1
I24841
I24889
tp1403
a(I1
I24895
I24912
tp1404
a(I1
I24916
I24928
tp1405
a(I1
I24930
I24939
tp1406
a(I1
I24941
I24960
tp1407
a(I1
I24962
I24983
tp1408
a(I1
I24985
I24989
tp1409
a(I1
I24991
I24992
tp1410
a(I1
I24994
I25015
tp1411
a(I1
I25017
I25038
tp1412
a(I1
I25040
I25068
tp1413
a(I1
I25070
I25078
tp1414
a(I1
I25082
I25092
tp1415
a(I1
I25094
I25102
tp1416
a(I1
I25104
I25117
tp1417
a(I1
I25119
I25131
tp1418
a(I1
I25133
I25145
tp1419
a(I1
I25149
I25162
tp1420
a(I1
I25164
I25165
tp1421
a(I1
I25167
I25186
tp1422
a(I1
I25188
I25199
tp1423
a(I1
I25201
I25203
tp1424
a(I1
I25205
I25220
tp1425
a(I1
I25222
I25231
tp1426
a(I1
I25233
I25234
tp1427
a(I1
I25236
I25254
tp1428
a(I1
I25256
I25276
tp1429
a(I1
I25278
I25297
tp1430
a(I1
I25299
I25347
tp1431
a(I1
I25353
I25372
tp1432
a(I1
I25376
I25396
tp1433
a(I1
I25398
I25405
tp1434
a(I1
I25407
I25422
tp1435
a(I1
I25424
I25431
tp1436
a(I1
I25433
I25459
tp1437
a(I1
I25461
I25475
tp1438
a(I1
I25477
I25486
tp1439
a(I1
I25488
I25503
tp1440
a(I1
I25505
I25508
tp1441
a(I1
I25512
I25528
tp1442
a(I1
I25530
I25536
tp1443
a(I1
I25538
I25549
tp1444
a(I1
I25551
I25570
tp1445
a(I1
I25572
I25581
tp1446
a(I1
I25583
I25605
tp1447
a(I1
I25607
I25614
tp1448
a(I1
I25618
I25631
tp1449
a(I1
I25633
I25642
tp1450
a(I1
I25644
I25692
tp1451
a(I1
I25694
I25699
tp1452
a(I1
I25703
I25717
tp1453
a(I1
I25721
I25723
tp1454
a(I1
I25725
I25735
tp1455
a(I1
I25737
I25750
tp1456
a(I1
I25752
I25767
tp1457
a(I1
I25769
I25784
tp1458
a(I1
I25786
I25802
tp1459
a(I1
I25804
I25815
tp1460
a(I1
I25821
I25828
tp1461
a(I1
I25832
I25836
tp1462
a(I1
I25838
I25846
tp1463
a(I1
I25848
I25869
tp1464
a(I1
I25871
I25899
tp1465
a(I1
I25901
I25915
tp1466
a(I1
I25917
I25919
tp1467
a(I1
I25921
I25933
tp1468
a(I1
I25935
I25936
tp1469
a(I1
I25938
I25949
tp1470
a(I1
I25951
I25960
tp1471
a(I1
I25962
I25971
tp1472
a(I1
I25973
I26005
tp1473
a(I1
I26007
I26024
tp1474
a(I1
I26026
I26030
tp1475
a(I1
I26032
I26056
tp1476
a(I1
I26058
I26112
tp1477
a(I1
I26118
I26132
tp1478
a(I1
I26136
I26155
tp1479
a(I1
I26157
I26177
tp1480
a(I1
I26179
I26181
tp1481
a(I1
I26183
I26195
tp1482
a(I1
I26197
I26200
tp1483
a(I1
I26202
I26205
tp1484
a(I1
I26207
I26214
tp1485
a(I1
I26216
I26236
tp1486
a(I1
I26238
I26245
tp1487
a(I1
I26247
I26254
tp1488
a(I1
I26256
I26280
tp1489
a(I1
I26282
I26291
tp1490
a(I1
I26295
I26326
tp1491
a(I1
I26328
I26380
tp1492
a(I1
I26382
I26390
tp1493
a(I1
I26396
I26407
tp1494
a(I1
I26411
I26423
tp1495
a(I1
I26425
I26461
tp1496
a(I1
I26463
I26476
tp1497
a(I1
I26480
I26491
tp1498
a(I1
I26493
I26546
tp1499
a(I1
I26550
I26580
tp1500
a(I1
I26582
I26627
tp1501
a(I1
I26629
I26654
tp1502
a(I1
I26656
I26670
tp1503
a(I1
I26672
I26684
tp1504
a(I1
I26686
I26690
tp1505
a(I1
I26692
I26698
tp1506
a(I1
I26704
I26716
tp1507
a(I1
I26720
I26750
tp1508
a(I1
I26752
I26777
tp1509
a(I1
I26779
I26795
tp1510
a(I1
I26797
I26807
tp1511
a(I1
I26809
I26816
tp1512
a(I1
I26818
I26827
tp1513
a(I1
I26829
I26861
tp1514
a(I1
I26863
I26874
tp1515
a(I1
I26876
I26885
tp1516
a(I1
I26887
I26892
tp1517
a(I1
I26894
I26903
tp1518
a(I1
I26905
I26923
tp1519
a(I1
I26925
I26930
tp1520
a(I1
I26932
I26963
tp1521
a(I1
I26967
I26981
tp1522
a(I1
I26983
I27012
tp1523
a(I1
I27014
I27019
tp1524
a(I1
I27021
I27023
tp1525
a(I1
I27025
I27048
tp1526
a(I1
I27050
I27077
tp1527
a(I1
I27079
I27088
tp1528
a(I1
I27094
I27100
tp1529
a(I1
I27104
I27117
tp1530
a(I1
I27119
I27152
tp1531
a(I1
I27154
I27164
tp1532
a(I1
I27166
I27180
tp1533
a(I1
I27182
I27193
tp1534
a(I1
I27197
I27202
tp1535
a(I1
I27204
I27213
tp1536
a(I1
I27215
I27221
tp1537
a(I1
I27223
I27240
tp1538
a(I1
I27242
I27250
tp1539
a(I1
I27252
I27271
tp1540
a(I1
I27273
I27322
tp1541
a(I1
I27324
I27352
tp1542
a(I1
I27354
I27383
tp1543
a(I1
I27385
I27388
tp1544
a(I1
I27390
I27412
tp1545
a(I1
I27414
I27462
tp1546
a(I1
I27468
I27479
tp1547
a(I1
I27483
I27511
tp1548
a(I1
I27513
I27532
tp1549
a(I1
I27534
I27543
tp1550
a(I1
I27545
I27556
tp1551
a(I1
I27558
I27569
tp1552
a(I1
I27571
I27595
tp1553
a(I1
I27597
I27618
tp1554
a(I1
I27620
I27629
tp1555
a(I1
I27631
I27639
tp1556
a(I1
I27641
I27675
tp1557
a(I1
I27677
I27699
tp1558
a(I1
I27701
I27707
tp1559
a(I1
I27709
I27726
tp1560
a(I1
I27728
I27809
tp1561
a(I1
I27811
I27857
tp1562
a(I1
I27863
I27872
tp1563
a(I1
I27876
I27884
tp1564
a(I1
I27886
I27918
tp1565
a(I1
I27920
I27938
tp1566
a(I1
I27940
I27956
tp1567
a(I1
I27958
I28029
tp1568
a(I1
I28035
I28060
tp1569
a(I1
I28064
I28111
tp1570
a(I1
I28113
I28132
tp1571
a(I1
I28134
I28144
tp1572
a(I1
I28146
I28151
tp1573
a(I1
I28153
I28176
tp1574
a(I1
I28178
I28190
tp1575
a(I1
I28192
I28217
tp1576
a(I1
I28219
I28242
tp1577
a(I1
I28244
I28265
tp1578
a(I1
I28267
I28281
tp1579
a(I1
I28285
I28304
tp1580
a(I1
I28306
I28309
tp1581
a(I1
I28311
I28322
tp1582
a(I1
I28324
I28325
tp1583
a(I1
I28327
I28344
tp1584
a(I1
I28346
I28382
tp1585
a(I1
I28384
I28395
tp1586
a(I1
I28399
I28417
tp1587
a(I1
I28419
I28451
tp1588
a(I1
I28453
I28508
tp1589
a(I1
I28512
I28525
tp1590
a(I1
I28527
I28601
tp1591
a(I1
I28605
I28620
tp1592
a(I1
I28622
I28623
tp1593
a(I1
I28625
I28654
tp1594
a(I1
I28656
I28665
tp1595
a(I1
I28667
I28671
tp1596
a(I1
I28677
I28686
tp1597
a(I1
I28690
I28710
tp1598
a(I1
I28714
I28738
tp1599
a(I1
I28740
I28753
tp1600
a(I1
I28755
I28770
tp1601
a(I1
I28772
I28789
tp1602
a(I1
I28793
I28809
tp1603
a(I1
I28813
I28828
tp1604
a(I1
I28830
I28861
tp1605
a(I1
I28865
I28878
tp1606
a(I1
I28880
I28949
tp1607
a(I1
I28951
I28993
tp1608
a(I1
I28995
I29022
tp1609
a(I1
I29028
I29048
tp1610
a(I1
I29052
I29070
tp1611
a(I1
I29074
I29105
tp1612
a(I1
I29107
I29115
tp1613
a(I1
I29117
I29138
tp1614
a(I1
I29140
I29160
tp1615
a(I1
I29162
I29174
tp1616
a(I1
I29176
I29232
tp1617
a(I1
I29234
I29268
tp1618
a(I1
I29272
I29286
tp1619
a(I1
I29292
I29304
tp1620
a(I1
I29306
I29319
tp1621
a(I1
I29321
I29351
tp1622
a(I1
I29353
I29374
tp1623
a(I1
I29378
I29404
tp1624
a(I1
I29406
I29413
tp1625
a(I1
I29415
I29431
tp1626
a(I1
I29433
I29449
tp1627
a(I1
I29451
I29459
tp1628
a(I1
I29461
I29533
tp1629
a(I1
I29535
I29537
tp1630
a(I1
I29539
I29556
tp1631
a(I1
I29558
I29576
tp1632
a(I1
I29582
I29587
tp1633
a(I1
I29591
I29631
tp1634
a(I1
I29633
I29661
tp1635
a(I1
I29665
I29675
tp1636
a(I1
I29679
I29731
tp1637
a(I1
I29733
I29737
tp1638
a(I1
I29739
I29774
tp1639
a(I1
I29776
I29781
tp1640
a(I1
I29783
I29835
tp1641
a(I1
I29837
I29847
tp1642
a(I1
I29851
I29865
tp1643
a(I1
I29867
I29874
tp1644
a(I1
I29876
I29879
tp1645
a(I1
I29881
I29948
tp1646
a(I1
I29950
I29966
tp1647
a(I1
I29972
I29980
tp1648
a(I1
I29984
I30015
tp1649
a(I1
I30017
I30020
tp1650
a(I1
I30022
I30061
tp1651
a(I1
I30063
I30066
tp1652
a(I1
I30068
I30103
tp1653
a(I1
I30105
I30152
tp1654
a(I1
I30154
I30162
tp1655
a(I1
I30166
I30184
tp1656
a(I1
I30188
I30193
tp1657
a(I1
I30195
I30262
tp1658
a(I1
I30264
I30284
tp1659
a(I1
I30286
I30336
tp1660
a(I1
I30340
I30349
tp1661
a(I1
I30351
I30394
tp1662
a(I1
I30400
I30408
tp1663
a(I1
I30412
I30430
tp1664
a(I1
I30432
I30439
tp1665
a(I1
I30441
I30486
tp1666
a(I1
I30488
I30507
tp1667
a(I1
I30509
I30557
tp1668
a(I1
I30559
I30567
tp1669
a(I1
I30571
I30587
tp1670
a(I1
I30589
I30592
tp1671
a(I1
I30594
I30608
tp1672
a(I1
I30610
I30611
tp1673
a(I1
I30613
I30621
tp1674
a(I1
I30623
I30681
tp1675
a(I1
I30683
I30694
tp1676
a(I1
I30696
I30743
tp1677
a(I1
I30749
I30756
tp1678
a(I1
I30760
I30771
tp1679
a(I1
I30773
I30784
tp1680
a(I1
I30786
I30797
tp1681
a(I1
I30799
I30837
tp1682
a(I1
I30839
I30853
tp1683
a(I1
I30855
I30867
tp1684
a(I1
I30869
I30878
tp1685
a(I1
I30880
I30916
tp1686
a(I1
I30918
I30942
tp1687
a(I1
I30946
I30978
tp1688
a(I1
I30982
I31003
tp1689
a(I1
I31005
I31034
tp1690
a(I1
I31038
I31048
tp1691
a(I1
I31050
I31075
tp1692
a(I1
I31077
I31101
tp1693
a(I1
I31103
I31118
tp1694
a(I1
I31120
I31129
tp1695
a(I1
I31135
I31146
tp1696
a(I1
I31150
I31166
tp1697
a(I1
I31168
I31185
tp1698
a(I1
I31187
I31297
tp1699
a(I1
I31299
I31317
tp1700
a(I1
I31321
I31336
tp1701
a(I1
I31338
I31363
tp1702
a(I1
I31365
I31366
tp1703
a(I1
I31368
I31394
tp1704
a(I1
I31396
I31406
tp1705
a(I1
I31408
I31413
tp1706
a(I1
I31417
I31438
tp1707
a(I1
I31440
I31444
tp1708
a(I1
I31446
I31453
tp1709
a(I1
I31455
I31462
tp1710
a(I1
I31464
I31469
tp1711
a(I1
I31471
I31476
tp1712
a(I1
I31478
I31487
tp1713
a(I1
I31489
I31528
tp1714
a(I1
I31534
I31540
tp1715
a(I1
I31544
I31562
tp1716
a(I1
I31564
I31578
tp1717
a(I1
I31580
I31611
tp1718
a(I1
I31613
I31623
tp1719
a(I1
I31625
I31649
tp1720
a(I1
I31651
I31653
tp1721
a(I1
I31655
I31690
tp1722
a(I1
I31692
I31746
tp1723
a(I1
I31748
I31749
tp1724
a(I1
I31751
I31780
tp1725
a(I1
I31782
I31793
tp1726
a(I1
I31795
I31797
tp1727
a(I1
I31799
I31842
tp1728
a(I1
I31844
I31872
tp1729
a(I1
I31874
I31880
tp1730
a(I1
I31882
I31888
tp1731
a(I1
I31890
I31931
tp1732
a(I1
I31933
I31946
tp1733
a(I1
I31948
I31957
tp1734
a(I1
I31959
I31971
tp1735
a(I1
I31973
I31984
tp1736
a(I1
I31986
I32002
tp1737
a(I1
I32006
I32013
tp1738
a(I1
I32015
I32034
tp1739
a(I1
I32036
I32057
tp1740
a(I1
I32059
I32080
tp1741
a(I1
I32082
I32090
tp1742
a(I1
I32094
I32104
tp1743
a(I1
I32106
I32111
tp1744
a(I1
I32113
I32117
tp1745
a(I1
I32119
I32133
tp1746
a(I1
I32135
I32148
tp1747
a(I1
I32150
I32159
tp1748
a(I1
I32161
I32172
tp1749
a(I1
I32174
I32188
tp1750
a(I1
I32190
I32202
tp1751
a(I1
I32208
I32223
tp1752
a(I1
I32227
I32246
tp1753
a(I1
I32248
I32272
tp1754
a(I1
I32274
I32285
tp1755
a(I1
I32287
I32298
tp1756
a(I1
I32300
I32316
tp1757
a(I1
I32318
I32326
tp1758
a(I1
I32328
I32344
tp1759
a(I1
I32346
I32368
tp1760
a(I1
I32370
I32383
tp1761
a(I1
I32385
I32390
tp1762
a(I1
I32392
I32396
tp1763
a(I1
I32398
I32411
tp1764
a(I1
I32413
I32441
tp1765
a(I1
I32445
I32472
tp1766
a(I1
I32474
I32480
tp1767
a(I1
I32482
I32484
tp1768
a(I1
I32486
I32507
tp1769
a(I1
I32509
I32537
tp1770
a(I1
I32543
I32551
tp1771
a(I1
I32555
I32568
tp1772
a(I1
I32572
I32601
tp1773
a(I1
I32603
I32611
tp1774
a(I1
I32613
I32625
tp1775
a(I1
I32627
I32646
tp1776
a(I1
I32650
I32683
tp1777
a(I1
I32685
I32695
tp1778
a(I1
I32697
I32708
tp1779
a(I1
I32710
I32721
tp1780
a(I1
I32723
I32737
tp1781
a(I1
I32739
I32741
tp1782
a(I1
I32743
I32748
tp1783
a(I1
I32750
I32752
tp1784
a(I1
I32754
I32776
tp1785
a(I1
I32778
I32803
tp1786
a(I1
I32805
I32818
tp1787
a(I1
I32820
I32840
tp1788
a(I1
I32842
I32855
tp1789
a(I1
I32857
I32871
tp1790
a(I1
I32873
I32882
tp1791
a(I1
I32888
I32900
tp1792
a(I1
I32904
I32917
tp1793
a(I1
I32919
I32922
tp1794
a(I1
I32924
I32952
tp1795
a(I1
I32954
I33012
tp1796
a(I1
I33014
I33032
tp1797
a(I1
I33036
I33057
tp1798
a(I1
I33059
I33078
tp1799
a(I1
I33080
I33085
tp1800
a(I1
I33087
I33103
tp1801
a(I1
I33105
I33130
tp1802
a(I1
I33132
I33146
tp1803
a(I1
I33150
I33178
tp1804
a(I1
I33180
I33182
tp1805
a(I1
I33184
I33222
tp1806
a(I1
I33224
I33247
tp1807
a(I1
I33249
I33294
tp1808
a(I1
I33300
I33313
tp1809
a(I1
I33317
I33334
tp1810
a(I1
I33336
I33353
tp1811
a(I1
I33355
I33358
tp1812
a(I1
I33360
I33364
tp1813
a(I1
I33366
I33374
tp1814
a(I1
I33376
I33378
tp1815
a(I1
I33380
I33400
tp1816
a(I1
I33402
I33410
tp1817
a(I1
I33412
I33434
tp1818
a(I1
I33436
I33459
tp1819
a(I1
I33463
I33468
tp1820
a(I1
I33470
I33514
tp1821
a(I1
I33516
I33529
tp1822
a(I1
I33531
I33533
tp1823
a(I1
I33535
I33576
tp1824
a(I1
I33578
I33611
tp1825
a(I1
I33617
I33623
tp1826
a(I1
I33627
I33638
tp1827
a(I1
I33640
I33649
tp1828
a(I1
I33651
I33668
tp1829
a(I1
I33670
I33673
tp1830
a(I1
I33675
I33687
tp1831
a(I1
I33689
I33694
tp1832
a(I1
I33696
I33700
tp1833
a(I1
I33702
I33704
tp1834
a(I1
I33706
I33727
tp1835
a(I1
I33729
I33738
tp1836
a(I1
I33740
I33746
tp1837
a(I1
I33748
I33774
tp1838
a(I1
I33776
I33802
tp1839
a(I1
I33804
I33807
tp1840
a(I1
I33809
I33840
tp1841
a(I1
I33842
I33847
tp1842
a(I1
I33849
I33872
tp1843
a(I1
I33874
I33887
tp1844
a(I1
I33889
I33925
tp1845
a(I1
I33927
I33946
tp1846
a(I1
I33948
I33977
tp1847
a(I1
I33979
I33990
tp1848
a(I1
I33996
I34008
tp1849
a(I1
I34012
I34026
tp1850
a(I1
I34028
I34047
tp1851
a(I1
I34049
I34064
tp1852
a(I1
I34066
I34083
tp1853
a(I1
I34085
I34111
tp1854
a(I1
I34113
I34139
tp1855
a(I1
I34141
I34165
tp1856
a(I1
I34167
I34182
tp1857
a(I1
I34184
I34210
tp1858
a(I1
I34216
I34219
tp1859
a(I1
I34223
I34238
tp1860
a(I1
I34240
I34260
tp1861
a(I1
I34262
I34271
tp1862
a(I1
I34273
I34296
tp1863
a(I1
I34298
I34314
tp1864
a(I1
I34316
I34321
tp1865
a(I1
I34323
I34340
tp1866
a(I1
I34346
I34359
tp1867
a(I1
I34363
I34375
tp1868
a(I1
I34379
I34408
tp1869
a(I1
I34410
I34442
tp1870
a(I1
I34444
I34461
tp1871
a(I1
I34463
I34484
tp1872
a(I1
I34488
I34523
tp1873
a(I1
I34525
I34534
tp1874
a(I1
I34536
I34572
tp1875
a(I1
I34574
I34616
tp1876
a(I1
I34618
I34637
tp1877
a(I1
I34639
I34705
tp1878
a(I1
I34709
I34719
tp1879
a(I1
I34721
I34758
tp1880
a(I1
I34764
I34768
tp1881
a(I1
I34772
I34855
tp1882
a(I1
I34857
I34862
tp1883
a(I1
I34864
I34867
tp1884
a(I1
I34869
I34889
tp1885
a(I1
I34891
I34895
tp1886
a(I1
I34897
I34903
tp1887
a(I1
I34907
I34913
tp1888
a(I1
I34915
I34920
tp1889
a(I1
I34922
I34930
tp1890
a(I1
I34932
I34933
tp1891
a(I1
I34935
I34949
tp1892
a(I1
I34951
I34956
tp1893
a(I1
I34958
I35002
tp1894
a(I1
I35004
I35024
tp1895
a(I1
I35026
I35048
tp1896
a(I1
I35050
I35062
tp1897
a(I1
I35064
I35082
tp1898
a(I1
I35086
I35109
tp1899
a(I1
I35111
I35137
tp1900
a(I1
I35143
I35149
tp1901
a(I1
I35153
I35174
tp1902
a(I1
I35176
I35219
tp1903
a(I1
I35221
I35249
tp1904
a(I1
I35251
I35266
tp1905
a(I1
I35268
I35317
tp1906
a(I1
I35319
I35328
tp1907
a(I1
I35330
I35357
tp1908
a(I1
I35359
I35390
tp1909
a(I1
I35392
I35441
tp1910
a(I1
I35447
I35454
tp1911
a(I1
I35458
I35476
tp1912
a(I1
I35478
I35494
tp1913
a(I1
I35496
I35529
tp1914
a(I1
I35531
I35558
tp1915
a(I1
I35562
I35578
tp1916
a(I1
I35580
I35599
tp1917
a(I1
I35601
I35635
tp1918
a(I1
I35637
I35642
tp1919
a(I1
I35644
I35650
tp1920
a(I1
I35652
I35662
tp1921
a(I1
I35664
I35693
tp1922
a(I1
I35699
I35726
tp1923
a(I1
I35730
I35745
tp1924
a(I1
I35747
I35754
tp1925
a(I1
I35756
I35758
tp1926
a(I1
I35760
I35764
tp1927
a(I1
I35766
I35774
tp1928
a(I1
I35776
I35786
tp1929
a(I1
I35788
I35838
tp1930
a(I1
I35840
I35867
tp1931
a(I1
I35869
I35885
tp1932
a(I1
I35887
I35908
tp1933
a(I1
I35910
I35997
tp1934
a(I1
I36001
I36021
tp1935
a(I1
I36023
I36057
tp1936
a(I1
I36059
I36094
tp1937
a(I1
I36096
I36164
tp1938
a(I1
I36166
I36174
tp1939
a(I1
I36178
I36192
tp1940
a(I1
I36194
I36201
tp1941
a(I1
I36203
I36222
tp1942
a(I1
I36224
I36286
tp1943
a(I1
I36290
I36309
tp1944
a(I1
I36311
I36315
tp1945
a(I1
I36317
I36319
tp1946
a(I1
I36321
I36357
tp1947
a(I1
I36359
I36388
tp1948
a(I1
I36390
I36399
tp1949
a(I1
I36401
I36414
tp1950
a(I1
I36416
I36425
tp1951
a(I1
I36427
I36502
tp1952
a(I1
I36504
I36513
tp1953
a(I1
I36517
I36528
tp1954
a(I1
I36530
I36531
tp1955
a(I1
I36535
I36557
tp1956
a(I1
I36559
I36573
tp1957
a(I1
I36577
I36630
tp1958
a(I1
I36632
I36686
tp1959
a(I1
I36692
I36702
tp1960
a(I1
I36706
I36720
tp1961
a(I1
I36722
I36773
tp1962
a(I1
I36775
I36803
tp1963
a(I1
I36807
I36821
tp1964
a(I1
I36823
I36842
tp1965
a(I1
I36844
I36845
tp1966
a(I1
I36847
I36857
tp1967
a(I1
I36859
I36865
tp1968
a(I1
I36867
I36893
tp1969
a(I1
I36895
I36915
tp1970
a(I1
I36919
I36942
tp1971
a(I1
I36944
I36947
tp1972
a(I1
I36949
I36961
tp1973
a(I1
I36963
I37028
tp1974
a(I1
I37030
I37055
tp1975
a(I1
I37057
I37058
tp1976
a(I1
I37060
I37087
tp1977
a(I1
I37089
I37159
tp1978
a(I1
I37165
I37176
tp1979
a(I1
I37180
I37189
tp1980
a(I1
I37191
I37194
tp1981
a(I1
I37196
I37235
tp1982
a(I1
I37237
I37249
tp1983
a(I1
I37251
I37262
tp1984
a(I1
I37264
I37275
tp1985
a(I1
I37277
I37294
tp1986
a(I1
I37296
I37305
tp1987
a(I1
I37307
I37349
tp1988
a(I1
I37351
I37367
tp1989
a(I1
I37369
I37378
tp1990
a(I1
I37380
I37393
tp1991
a(I1
I37395
I37425
tp1992
a(I1
I37429
I37445
tp1993
a(I1
I37447
I37454
tp1994
a(I1
I37456
I37470
tp1995
a(I1
I37472
I37474
tp1996
a(I1
I37476
I37486
tp1997
a(I1
I37488
I37518
tp1998
a(I1
I37522
I37543
tp1999
a(I1
I37545
I37552
tp2000
a(I1
I37554
I37559
tp2001
a(I1
I37561
I37586
tp2002
a(I1
I37588
I37602
tp2003
a(I1
I37604
I37623
tp2004
a(I1
I37627
I37644
tp2005
a(I1
I37646
I37672
tp2006
a(I1
I37674
I37675
tp2007
a(I1
I37677
I37682
tp2008
a(I1
I37684
I37692
tp2009
a(I1
I37694
I37724
tp2010
a(I1
I37726
I37780
tp2011
a(I1
I37786
I37797
tp2012
a(I1
I37801
I37831
tp2013
a(I1
I37833
I37837
tp2014
a(I1
I37839
I37845
tp2015
a(I1
I37847
I37852
tp2016
a(I1
I37854
I37879
tp2017
a(I1
I37881
I37882
tp2018
a(I1
I37884
I37901
tp2019
a(I1
I37903
I37915
tp2020
a(I1
I37919
I37941
tp2021
a(I1
I37943
I37946
tp2022
a(I1
I37948
I38029
tp2023
a(I1
I38031
I38049
tp2024
a(I1
I38051
I38063
tp2025
a(I1
I38065
I38090
tp2026
a(I1
I38096
I38101
tp2027
a(I1
I38105
I38122
tp2028
a(I1
I38124
I38154
tp2029
a(I1
I38156
I38202
tp2030
a(I1
I38206
I38219
tp2031
a(I1
I38221
I38237
tp2032
a(I1
I38239
I38272
tp2033
a(I1
I38274
I38289
tp2034
a(I1
I38291
I38298
tp2035
a(I1
I38300
I38312
tp2036
a(I1
I38318
I38323
tp2037
a(I1
I38327
I38343
tp2038
a(I1
I38345
I38384
tp2039
a(I1
I38386
I38402
tp2040
a(I1
I38404
I38431
tp2041
a(I1
I38433
I38462
tp2042
a(I1
I38464
I38474
tp2043
a(I1
I38476
I38494
tp2044
a(I1
I38500
I38504
tp2045
a(I1
I38508
I38523
tp2046
a(I1
I38525
I38528
tp2047
a(I1
I38530
I38535
tp2048
a(I1
I38537
I38543
tp2049
a(I1
I38545
I38558
tp2050
a(I1
I38560
I38578
tp2051
a(I1
I38580
I38591
tp2052
a(I1
I38593
I38617
tp2053
a(I1
I38619
I38637
tp2054
a(I1
I38639
I38666
tp2055
a(I1
I38668
I38693
tp2056
a(I1
I38699
I38706
tp2057
a(I1
I38710
I38768
tp2058
a(I1
I38770
I38816
tp2059
a(I1
I38820
I38842
tp2060
a(I1
I38844
I38859
tp2061
a(I1
I38861
I38867
tp2062
a(I1
I38869
I38886
tp2063
a(I1
I38888
I38898
tp2064
a(I1
I38900
I38926
tp2065
a(I1
I38932
I38937
tp2066
a(I1
I38941
I38966
tp2067
a(I1
I38968
I39014
tp2068
a(I1
I39016
I39045
tp2069
a(I1
I39047
I39057
tp2070
a(I1
I39059
I39098
tp2071
a(I1
I39102
I39111
tp2072
a(I1
I39113
I39133
tp2073
a(I1
I39135
I39142
tp2074
a(I1
I39144
I39179
tp2075
a(I1
I39181
I39208
tp2076
a(I1
I39210
I39211
tp2077
a(I1
I39221
I39222
tp2078
a(I1
I39224
I39249
tp2079
a(I1
I39255
I39263
tp2080
a(I1
I39267
I39271
tp2081
a(I1
I39273
I39322
tp2082
a(I1
I39326
I39341
tp2083
a(I1
I39343
I39436
tp2084
a(I1
I39438
I39457
tp2085
a(I1
I39459
I39501
tp2086
a(I1
I39507
I39514
tp2087
a(I1
I39518
I39540
tp2088
a(I1
I39542
I39550
tp2089
a(I1
I39552
I39574
tp2090
a(I1
I39576
I39611
tp2091
a(I1
I39613
I39627
tp2092
a(I1
I39629
I39653
tp2093
a(I1
I39655
I39672
tp2094
a(I1
I39674
I39720
tp2095
a(I1
I39726
I39733
tp2096
a(I1
I39737
I39749
tp2097
a(I1
I39751
I39786
tp2098
a(I1
I39788
I39791
tp2099
a(I1
I39793
I39836
tp2100
a(I1
I39838
I39863
tp2101
a(I1
I39865
I39904
tp2102
a(I1
I39910
I39914
tp2103
a(I1
I39918
I39946
tp2104
a(I1
I39948
I39963
tp2105
a(I1
I39965
I39994
tp2106
a(I1
I39996
I40061
tp2107
a(I1
I40063
I40085
tp2108
a(I1
I40087
I40134
tp2109
a(I1
I40136
I40148
tp2110
a(I1
I40150
I40181
tp2111
a(I1
I40183
I40207
tp2112
a(I1
I40209
I40233
tp2113
a(I1
I40235
I40246
tp2114
a(I1
I40252
I40265
tp2115
a(I1
I40269
I40285
tp2116
a(I1
I40287
I40331
tp2117
a(I1
I40333
I40347
tp2118
a(I1
I40349
I40370
tp2119
a(I1
I40372
I40383
tp2120
a(I1
I40385
I40394
tp2121
a(I1
I40396
I40408
tp2122
a(I1
I40412
I40428
tp2123
a(I1
I40430
I40478
tp2124
a(I1
I40484
I40494
tp2125
a(I1
I40498
I40514
tp2126
a(I1
I40516
I40519
tp2127
a(I1
I40521
I40549
tp2128
a(I1
I40551
I40583
tp2129
a(I1
I40587
I40600
tp2130
a(I1
I40602
I40609
tp2131
a(I1
I40611
I40614
tp2132
a(I1
I40616
I40638
tp2133
a(I1
I40640
I40663
tp2134
a(I1
I40667
I40690
tp2135
a(I1
I40692
I40693
tp2136
a(I1
I40697
I40716
tp2137
a(I1
I40718
I40738
tp2138
a(I1
I40740
I40770
tp2139
a(I1
I40774
I40788
tp2140
a(I1
I40790
I40821
tp2141
a(I1
I40827
I40832
tp2142
a(I1
I40836
I40854
tp2143
a(I1
I40856
I40901
tp2144
a(I1
I40905
I40958
tp2145
a(I1
I40960
I40961
tp2146
a(I1
I40963
I40984
tp2147
a(I1
I40986
I40987
tp2148
a(I1
I40989
I41002
tp2149
a(I1
I41004
I41057
tp2150
a(I1
I41059
I41085
tp2151
a(I1
I41087
I41108
tp2152
a(I1
I41110
I41142
tp2153
a(I1
I41144
I41154
tp2154
a(I1
I41156
I41175
tp2155
a(I1
I41181
I41189
tp2156
a(I1
I41193
I41216
tp2157
a(I1
I41218
I41221
tp2158
a(I1
I41223
I41236
tp2159
a(I1
I41238
I41257
tp2160
a(I1
I41259
I41270
tp2161
a(I1
I41272
I41305
tp2162
a(I1
I41307
I41347
tp2163
a(I1
I41349
I41384
tp2164
a(I1
I41386
I41398
tp2165
a(I1
I41400
I41401
tp2166
a(I1
I41403
I41407
tp2167
a(I1
I41409
I41447
tp2168
a(I1
I41449
I41467
tp2169
a(I1
I41473
I41484
tp2170
a(I1
I41488
I41504
tp2171
a(I1
I41506
I41580
tp2172
a(I1
I41582
I41609
tp2173
a(I1
I41611
I41654
tp2174
a(I1
I41656
I41661
tp2175
a(I1
I41663
I41678
tp2176
a(I1
I41680
I41683
tp2177
a(I1
I41685
I41695
tp2178
a(I1
I41697
I41706
tp2179
a(I1
I41708
I41717
tp2180
a(I1
I41719
I41737
tp2181
a(I1
I41739
I41751
tp2182
a(I1
I41757
I41765
tp2183
a(I1
I41769
I41773
tp2184
a(I1
I41775
I41837
tp2185
a(I1
I41839
I41844
tp2186
a(I1
I41846
I41873
tp2187
a(I1
I41875
I41927
tp2188
a(I1
I41931
I41944
tp2189
a(I1
I41946
I41954
tp2190
a(I1
I41956
I41960
tp2191
a(I1
I41962
I42003
tp2192
a(I1
I42005
I42036
tp2193
a(I1
I42038
I42083
tp2194
a(I1
I42087
I42133
tp2195
a(I1
I42135
I42144
tp2196
a(I1
I42148
I42154
tp2197
a(I1
I42156
I42194
tp2198
a(I1
I42198
I42222
tp2199
a(I1
I42224
I42237
tp2200
a(I1
I42239
I42257
tp2201
a(I1
I42259
I42281
tp2202
a(I1
I42283
I42314
tp2203
a(I1
I42316
I42327
tp2204
a(I1
I42333
I42348
tp2205
a(I1
I42352
I42364
tp2206
a(I1
I42366
I42456
tp2207
a(I1
I42458
I42473
tp2208
a(I1
I42475
I42525
tp2209
a(I1
I42527
I42575
tp2210
a(I1
I42577
I42625
tp2211
a(I1
I42627
I42638
tp2212
a(I1
I42640
I42673
tp2213
a(I1
I42675
I42692
tp2214
a(I1
I42694
I42716
tp2215
a(I1
I42722
I42726
tp2216
a(I1
I42730
I42740
tp2217
a(I1
I42742
I42775
tp2218
a(I1
I42777
I42786
tp2219
a(I1
I42788
I42823
tp2220
a(I1
I42829
I42840
tp2221
a(I1
I42844
I42882
tp2222
a(I1
I42884
I42944
tp2223
a(I1
I42946
I42991
tp2224
a(I1
I42993
I43040
tp2225
a(I1
I43042
I43061
tp2226
a(I1
I43063
I43080
tp2227
a(I1
I43084
I43088
tp2228
a(I1
I43090
I43096
tp2229
a(I1
I43098
I43099
tp2230
a(I1
I43101
I43134
tp2231
a(I1
I43136
I43145
tp2232
a(I1
I43147
I43179
tp2233
a(I1
I43181
I43208
tp2234
a(I1
I43214
I43224
tp2235
a(I1
I43228
I43248
tp2236
a(I1
I43250
I43254
tp2237
a(I1
I43256
I43286
tp2238
a(I1
I43288
I43362
tp2239
a(I1
I43364
I43393
tp2240
a(I1
I43395
I43414
tp2241
a(I1
I43416
I43472
tp2242
a(I1
I43474
I43503
tp2243
a(I1
I43505
I43526
tp2244
a(I1
I43528
I43572
tp2245
a(I1
I43574
I43636
tp2246
a(I1
I43638
I43641
tp2247
a(I1
I43643
I43659
tp2248
a(I1
I43665
I43674
tp2249
a(I1
I43678
I43716
tp2250
a(I1
I43718
I43765
tp2251
a(I1
I43767
I43800
tp2252
a(I1
I43802
I43817
tp2253
a(I1
I43819
I43858
tp2254
a(I1
I43860
I43878
tp2255
a(I1
I43884
I43909
tp2256
a(I1
I43913
I43923
tp2257
a(I1
I43925
I43941
tp2258
a(I1
I43943
I43972
tp2259
a(I1
I43974
I43981
tp2260
a(I1
I43983
I43992
tp2261
a(I1
I43994
I44016
tp2262
a(I1
I44018
I44080
tp2263
a(I1
I44082
I44098
tp2264
a(I1
I44100
I44133
tp2265
a(I1
I44135
I44157
tp2266
a(I1
I44159
I44221
tp2267
a(I1
I44223
I44238
tp2268
a(I1
I44240
I44241
tp2269
a(I1
I44243
I44256
tp2270
a(I1
I44258
I44276
tp2271
a(I1
I44278
I44292
tp2272
a(I1
I44296
I44298
tp2273
a(I1
I44300
I44364
tp2274
a(I1
I44366
I44404
tp2275
a(I1
I44406
I44422
tp2276
a(I1
I44424
I44430
tp2277
a(I1
I44436
I44442
tp2278
a(I1
I44446
I44468
tp2279
a(I1
I44470
I44472
tp2280
a(I1
I44474
I44496
tp2281
a(I1
I44498
I44561
tp2282
a(I1
I44563
I44580
tp2283
a(I1
I44582
I44599
tp2284
a(I1
I44603
I44623
tp2285
a(I1
I44625
I44679
tp2286
a(I1
I44681
I44706
tp2287
a(I1
I44712
I44716
tp2288
a(I1
I44720
I44727
tp2289
a(I1
I44729
I44790
tp2290
a(I1
I44794
I44818
tp2291
a(I1
I44820
I44828
tp2292
a(I1
I44830
I44831
tp2293
a(I1
I44833
I44880
tp2294
a(I1
I44882
I44890
tp2295
a(I1
I44892
I44909
tp2296
a(I1
I44913
I44935
tp2297
a(I1
I44937
I44939
tp2298
a(I1
I44941
I44960
tp2299
a(I1
I44962
I44969
tp2300
a(I1
I44971
I45036
tp2301
a(I1
I45038
I45056
tp2302
a(I1
I45062
I45098
tp2303
a(I1
I45102
I45119
tp2304
a(I1
I45121
I45132
tp2305
a(I1
I45134
I45144
tp2306
a(I1
I45146
I45176
tp2307
a(I1
I45178
I45187
tp2308
a(I1
I45189
I45202
tp2309
a(I1
I45204
I45219
tp2310
a(I1
I45221
I45236
tp2311
a(I1
I45240
I45252
tp2312
a(I1
I45254
I45259
tp2313
a(I1
I45261
I45267
tp2314
a(I1
I45269
I45293
tp2315
a(I1
I45295
I45310
tp2316
a(I1
I45312
I45330
tp2317
a(I1
I45332
I45364
tp2318
a(I1
I45366
I45393
tp2319
a(I1
I45395
I45418
tp2320
a(I1
I45420
I45436
tp2321
a(I1
I45438
I45450
tp2322
a(I1
I45452
I45480
tp2323
a(I1
I45482
I45535
tp2324
a(I1
I45539
I45552
tp2325
a(I1
I45554
I45569
tp2326
a(I1
I45571
I45578
tp2327
a(I1
I45580
I45599
tp2328
a(I1
I45601
I45628
tp2329
a(I1
I45630
I45640
tp2330
a(I1
I45642
I45653
tp2331
a(I1
I45659
I45670
tp2332
a(I1
I45674
I45692
tp2333
a(I1
I45694
I45700
tp2334
a(I1
I45704
I45756
tp2335
a(I1
I45758
I45773
tp2336
a(I1
I45775
I45784
tp2337
a(I1
I45786
I45787
tp2338
a(I1
I45789
I45800
tp2339
a(I1
I45802
I45821
tp2340
a(I1
I45823
I45852
tp2341
a(I1
I45854
I45858
tp2342
a(I1
I45860
I45874
tp2343
a(I1
I45876
I45891
tp2344
a(I1
I45893
I45904
tp2345
a(I1
I45906
I45921
tp2346
a(I1
I45923
I45930
tp2347
a(I1
I45932
I45937
tp2348
a(I1
I45939
I45950
tp2349
a(I1
I45952
I45968
tp2350
a(I1
I45970
I45989
tp2351
a(I1
I45995
I46002
tp2352
a(I1
I46006
I46024
tp2353
a(I1
I46026
I46035
tp2354
a(I1
I46037
I46103
tp2355
a(I1
I46105
I46133
tp2356
a(I1
I46135
I46147
tp2357
a(I1
I46149
I46159
tp2358
a(I1
I46161
I46169
tp2359
a(I1
I46171
I46201
tp2360
a(I1
I46203
I46210
tp2361
a(I1
I46212
I46220
tp2362
a(I1
I46222
I46237
tp2363
a(I1
I46239
I46246
tp2364
a(I1
I46248
I46270
tp2365
a(I1
I46272
I46290
tp2366
a(I1
I46296
I46305
tp2367
a(I1
I46309
I46329
tp2368
a(I1
I46331
I46336
tp2369
a(I1
I46338
I46365
tp2370
a(I1
I46367
I46388
tp2371
a(I1
I46390
I46404
tp2372
a(I1
I46406
I46407
tp2373
a(I1
I46409
I46431
tp2374
a(I1
I46433
I46463
tp2375
a(I1
I46465
I46469
tp2376
a(I1
I46471
I46477
tp2377
a(I1
I46481
I46513
tp2378
a(I1
I46517
I46576
tp2379
a(I1
I46578
I46589
tp2380
a(I1
I46591
I46598
tp2381
a(I1
I46600
I46615
tp2382
a(I1
I46621
I46632
tp2383
a(I1
I46636
I46641
tp2384
a(I1
I46643
I46671
tp2385
a(I1
I46673
I46701
tp2386
a(I1
I46703
I46725
tp2387
a(I1
I46727
I46754
tp2388
a(I1
I46756
I46767
tp2389
a(I1
I46769
I46812
tp2390
a(I1
I46814
I46836
tp2391
a(I1
I46838
I46882
tp2392
a(I1
I46884
I46895
tp2393
a(I1
I46897
I46914
tp2394
a(I1
I46916
I46949
tp2395
a(I1
I46951
I46983
tp2396
a(I1
I46985
I47011
tp2397
a(I1
I47013
I47015
tp2398
a(I1
I47017
I47050
tp2399
a(I1
I47054
I47074
tp2400
a(I1
I47076
I47084
tp2401
a(I1
I47086
I47098
tp2402
a(I1
I47102
I47110
tp2403
a(I1
I47112
I47120
tp2404
a(I1
I47126
I47131
tp2405
a(I1
I47135
I47151
tp2406
a(I1
I47153
I47154
tp2407
a(I1
I47156
I47181
tp2408
a(I1
I47183
I47219
tp2409
a(I1
I47221
I47222
tp2410
a(I1
I47224
I47250
tp2411
a(I1
I47252
I47254
tp2412
a(I1
I47256
I47269
tp2413
a(I1
I47271
I47282
tp2414
a(I1
I47284
I47306
tp2415
a(I1
I47308
I47325
tp2416
a(I1
I47327
I47348
tp2417
a(I1
I47350
I47371
tp2418
a(I1
I47373
I47407
tp2419
a(I1
I47409
I47419
tp2420
a(I1
I47425
I47449
tp2421
a(I1
I47453
I47466
tp2422
a(I1
I47468
I47531
tp2423
a(I1
I47535
I47566
tp2424
a(I1
I47570
I47581
tp2425
a(I1
I47583
I47601
tp2426
a(I1
I47603
I47612
tp2427
a(I1
I47614
I47649
tp2428
a(I1
I47651
I47660
tp2429
a(I1
I47662
I47685
tp2430
a(I1
I47687
I47706
tp2431
a(I1
I47708
I47741
tp2432
a(I1
I47743
I47809
tp2433
a(I1
I47811
I47813
tp2434
a(I1
I47815
I47826
tp2435
a(I1
I47828
I47845
tp2436
a(I1
I47849
I47886
tp2437
a(I1
I47888
I47891
tp2438
a(I1
I47893
I47930
tp2439
a(I1
I47932
I47956
tp2440
a(I1
I47958
I47988
tp2441
a(I1
I47994
I48008
tp2442
a(I1
I48012
I48035
tp2443
a(I1
I48037
I48065
tp2444
a(I1
I48067
I48161
tp2445
a(I1
I48165
I48217
tp2446
a(I1
I48219
I48226
tp2447
a(I1
I48228
I48232
tp2448
a(I1
I48234
I48256
tp2449
a(I1
I48258
I48287
tp2450
a(I1
I48289
I48290
tp2451
a(I1
I48292
I48333
tp2452
a(I1
I48335
I48340
tp2453
a(I1
I48342
I48440
tp2454
a(I1
I48442
I48462
tp2455
a(I1
I48466
I48485
tp2456
a(I1
I48487
I48494
tp2457
a(I1
I48496
I48524
tp2458
a(I1
I48526
I48560
tp2459
a(I1
I48562
I48569
tp2460
a(I1
I48575
I48588
tp2461
a(I1
I48592
I48617
tp2462
a(I1
I48619
I48627
tp2463
a(I1
I48629
I48673
tp2464
a(I1
I48675
I48694
tp2465
a(I1
I48698
I48725
tp2466
a(I1
I48727
I48728
tp2467
a(I1
I48730
I48745
tp2468
a(I1
I48747
I48750
tp2469
a(I1
I48752
I48773
tp2470
a(I1
I48775
I48800
tp2471
a(I1
I48802
I48821
tp2472
a(I1
I48823
I48830
tp2473
a(I1
I48832
I48851
tp2474
a(I1
I48853
I48875
tp2475
a(I1
I48877
I48909
tp2476
a(I1
I48911
I48912
tp2477
a(I1
I48922
I48923
tp2478
a(I1
I48925
I48943
tp2479
a(I1
I48945
I48965
tp2480
a(I1
I48971
I48981
tp2481
a(I1
I48985
I49004
tp2482
a(I1
I49006
I49008
tp2483
a(I1
I49010
I49015
tp2484
a(I1
I49017
I49043
tp2485
a(I1
I49045
I49052
tp2486
a(I1
I49054
I49091
tp2487
a(I1
I49093
I49159
tp2488
a(I1
I49161
I49174
tp2489
a(I1
I49176
I49228
tp2490
a(I1
I49230
I49236
tp2491
a(I1
I49238
I49264
tp2492
a(I1
I49266
I49282
tp2493
a(I1
I49284
I49287
tp2494
a(I1
I49289
I49310
tp2495
a(I1
I49312
I49326
tp2496
a(I1
I49332
I49342
tp2497
a(I1
I49346
I49349
tp2498
a(I1
I49351
I49438
tp2499
a(I1
I49440
I49503
tp2500
a(I1
I49505
I49588
tp2501
a(I1
I49594
I49608
tp2502
a(I1
I49612
I49637
tp2503
a(I1
I49639
I49658
tp2504
a(I1
I49660
I49683
tp2505
a(I1
I49685
I49728
tp2506
a(I1
I49730
I49784
tp2507
a(I1
I49786
I49788
tp2508
a(I1
I49790
I49812
tp2509
a(I1
I49814
I49816
tp2510
a(I1
I49818
I49841
tp2511
a(I1
I49843
I49858
tp2512
a(I1
I49860
I49872
tp2513
a(I1
I49874
I49899
tp2514
a(I1
I49901
I49939
tp2515
a(I1
I49945
I49951
tp2516
a(I1
I49955
I50000
tp2517
a(I1
I50002
I50005
tp2518
a(I1
I50007
I50013
tp2519
a(I1
I50015
I50032
tp2520
a(I1
I50034
I50045
tp2521
a(I1
I50047
I50054
tp2522
a(I1
I50056
I50104
tp2523
a(I1
I50106
I50112
tp2524
a(I1
I50114
I50129
tp2525
a(I1
I50131
I50163
tp2526
a(I1
I50165
I50206
tp2527
a(I1
I50208
I50244
tp2528
a(I1
I50246
I50271
tp2529
a(I1
I50277
I50283
tp2530
a(I1
I50287
I50306
tp2531
a(I1
I50308
I50311
tp2532
a(I1
I50313
I50326
tp2533
a(I1
I50328
I50338
tp2534
a(I1
I50340
I50377
tp2535
a(I1
I50379
I50389
tp2536
a(I1
I50393
I50443
tp2537
a(I1
I50445
I50446
tp2538
a(I1
I50448
I50484
tp2539
a(I1
I50486
I50489
tp2540
a(I1
I50491
I50614
tp2541
a(I1
I50616
I50634
tp2542
a(I1
I50640
I50645
tp2543
a(I1
I50649
I50700
tp2544
a(I1
I50702
I50713
tp2545
a(I1
I50715
I50753
tp2546
a(I1
I50755
I50758
tp2547
a(I1
I50760
I50790
tp2548
a(I1
I50792
I50808
tp2549
a(I1
I50810
I50824
tp2550
a(I1
I50826
I50831
tp2551
a(I1
I50833
I50868
tp2552
a(I1
I50870
I50926
tp2553
a(I1
I50930
I50936
tp2554
a(I1
I50938
I50963
tp2555
a(I1
I50965
I51000
tp2556
a(I1
I51002
I51016
tp2557
a(I1
I51022
I51030
tp2558
a(I1
I51034
I51052
tp2559
a(I1
I51054
I51055
tp2560
a(I1
I51057
I51062
tp2561
a(I1
I51064
I51070
tp2562
a(I1
I51072
I51096
tp2563
a(I1
I51098
I51125
tp2564
a(I1
I51127
I51265
tp2565
a(I1
I51267
I51273
tp2566
a(I1
I51275
I51293
tp2567
a(I1
I51295
I51299
tp2568
a(I1
I51301
I51316
tp2569
a(I1
I51318
I51330
tp2570
a(I1
I51332
I51360
tp2571
a(I1
I51362
I51369
tp2572
a(I1
I51371
I51383
tp2573
a(I1
I51385
I51404
tp2574
a(I1
I51406
I51412
tp2575
a(I1
I51414
I51437
tp2576
a(I1
I51443
I51454
tp2577
a(I1
I51458
I51465
tp2578
a(I1
I51467
I51498
tp2579
a(I1
I51502
I51550
tp2580
a(I1
I51552
I51563
tp2581
a(I1
I51565
I51580
tp2582
a(I1
I51582
I51604
tp2583
a(I1
I51606
I51624
tp2584
a(I1
I51626
I51636
tp2585
a(I1
I51638
I51651
tp2586
a(I1
I51653
I51692
tp2587
a(I1
I51694
I51720
tp2588
a(I1
I51726
I51731
tp2589
a(I1
I51735
I51766
tp2590
a(I1
I51770
I51811
tp2591
a(I1
I51813
I51823
tp2592
a(I1
I51825
I51831
tp2593
a(I1
I51833
I51847
tp2594
a(I1
I51849
I51866
tp2595
a(I1
I51868
I51917
tp2596
a(I1
I51921
I51945
tp2597
a(I1
I51947
I51950
tp2598
a(I1
I51952
I51958
tp2599
a(I1
I51960
I51972
tp2600
a(I1
I51974
I52040
tp2601
a(I1
I52046
I52053
tp2602
a(I1
I52057
I52078
tp2603
a(I1
I52080
I52157
tp2604
a(I1
I52161
I52191
tp2605
a(I1
I52193
I52228
tp2606
a(I1
I52230
I52264
tp2607
a(I1
I52268
I52284
tp2608
a(I1
I52286
I52359
tp2609
a(I1
I52361
I52366
tp2610
a(I1
I52368
I52379
tp2611
a(I1
I52381
I52390
tp2612
a(I1
I52392
I52398
tp2613
a(I1
I52400
I52416
tp2614
a(I1
I52418
I52435
tp2615
a(I1
I52441
I52459
tp2616
a(I1
I52463
I52468
tp2617
a(I1
I52470
I52496
tp2618
a(I1
I52498
I52506
tp2619
a(I1
I52508
I52521
tp2620
a(I1
I52523
I52528
tp2621
a(I1
I52530
I52536
tp2622
a(I1
I52538
I52542
tp2623
a(I1
I52544
I52568
tp2624
a(I1
I52570
I52571
tp2625
a(I1
I52573
I52575
tp2626
a(I1
I52577
I52601
tp2627
a(I1
I52603
I52682
tp2628
a(I1
I52684
I52735
tp2629
a(I1
I52739
I52760
tp2630
a(I1
I52762
I52764
tp2631
a(I1
I52766
I52776
tp2632
a(I1
I52778
I52794
tp2633
a(I1
I52796
I52812
tp2634
a(I1
I52814
I52818
tp2635
a(I1
I52820
I52836
tp2636
a(I1
I52838
I52854
tp2637
a(I1
I52856
I52878
tp2638
a(I1
I52882
I52897
tp2639
a(I1
I52899
I52900
tp2640
a(I1
I52902
I52927
tp2641
a(I1
I52929
I52930
tp2642
a(I1
I52932
I52940
tp2643
a(I1
I52942
I52953
tp2644
a(I1
I52955
I52960
tp2645
a(I1
I52962
I52973
tp2646
a(I1
I52975
I53007
tp2647
a(I1
I53009
I53023
tp2648
a(I1
I53027
I53040
tp2649
a(I1
I53042
I53091
tp2650
a(I1
I53097
I53104
tp2651
a(I1
I53108
I53112
tp2652
a(I1
I53114
I53161
tp2653
a(I1
I53163
I53181
tp2654
a(I1
I53183
I53194
tp2655
a(I1
I53196
I53204
tp2656
a(I1
I53206
I53213
tp2657
a(I1
I53215
I53272
tp2658
a(I1
I53274
I53286
tp2659
a(I1
I53288
I53298
tp2660
a(I1
I53302
I53315
tp2661
a(I1
I53317
I53355
tp2662
a(I1
I53357
I53385
tp2663
a(I1
I53387
I53407
tp2664
a(I1
I53409
I53440
tp2665
a(I1
I53442
I53463
tp2666
a(I1
I53469
I53479
tp2667
a(I1
I53483
I53509
tp2668
a(I1
I53511
I53533
tp2669
a(I1
I53535
I53564
tp2670
a(I1
I53566
I53594
tp2671
a(I1
I53596
I53602
tp2672
a(I1
I53604
I53613
tp2673
a(I1
I53615
I53645
tp2674
a(I1
I53647
I53667
tp2675
a(I1
I53669
I53677
tp2676
a(I1
I53679
I53683
tp2677
a(I1
I53685
I53718
tp2678
a(I1
I53720
I53737
tp2679
a(I1
I53739
I53775
tp2680
a(I1
I53777
I53801
tp2681
a(I1
I53807
I53822
tp2682
a(I1
I53826
I53834
tp2683
a(I1
I53836
I53849
tp2684
a(I1
I53851
I53863
tp2685
a(I1
I53865
I53911
tp2686
a(I1
I53913
I53965
tp2687
a(I1
I53969
I53981
tp2688
a(I1
I53983
I53987
tp2689
a(I1
I53989
I53991
tp2690
a(I1
I53993
I54015
tp2691
a(I1
I54017
I54025
tp2692
a(I1
I54027
I54033
tp2693
a(I1
I54035
I54054
tp2694
a(I1
I54056
I54069
tp2695
a(I1
I54071
I54101
tp2696
a(I1
I54105
I54126
tp2697
a(I1
I54128
I54137
tp2698
a(I1
I54139
I54161
tp2699
a(I1
I54163
I54182
tp2700
a(I1
I54184
I54189
tp2701
a(I1
I54191
I54196
tp2702
a(I1
I54200
I54233
tp2703
a(I1
I54235
I54272
tp2704
a(I1
I54274
I54287
tp2705
a(I1
I54291
I54322
tp2706
a(I1
I54324
I54328
tp2707
a(I1
I54330
I54342
tp2708
a(I1
I54344
I54356
tp2709
a(I1
I54358
I54388
tp2710
a(I1
I54390
I54454
tp2711
a(I1
I54458
I54481
tp2712
a(I1
I54483
I54492
tp2713
a(I1
I54496
I54515
tp2714
a(I1
I54517
I54519
tp2715
a(I1
I54521
I54533
tp2716
a(I1
I54535
I54541
tp2717
a(I1
I54543
I54554
tp2718
a(I1
I54556
I54573
tp2719
a(I1
I54575
I54576
tp2720
a(I1
I54578
I54594
tp2721
a(I1
I54596
I54617
tp2722
a(I1
I54619
I54627
tp2723
a(I1
I54629
I54640
tp2724
a(I1
I54646
I54663
tp2725
a(I1
I54667
I54705
tp2726
a(I1
I54709
I54749
tp2727
a(I1
I54751
I54774
tp2728
a(I1
I54776
I54803
tp2729
a(I1
I54807
I54828
tp2730
a(I1
I54830
I54881
tp2731
a(I1
I54885
I54898
tp2732
a(I1
I54900
I54936
tp2733
a(I1
I54938
I54980
tp2734
a(I1
I54984
I54993
tp2735
a(I1
I54995
I55035
tp2736
a(I1
I55037
I55045
tp2737
a(I1
I55051
I55074
tp2738
a(I1
I55078
I55102
tp2739
a(I1
I55104
I55134
tp2740
a(I1
I55136
I55164
tp2741
a(I1
I55166
I55167
tp2742
a(I1
I55169
I55177
tp2743
a(I1
I55179
I55191
tp2744
a(I1
I55193
I55195
tp2745
a(I1
I55197
I55204
tp2746
a(I1
I55206
I55211
tp2747
a(I1
I55213
I55240
tp2748
a(I1
I55242
I55260
tp2749
a(I1
I55262
I55278
tp2750
a(I1
I55280
I55302
tp2751
a(I1
I55304
I55356
tp2752
a(I1
I55358
I55361
tp2753
a(I1
I55363
I55376
tp2754
a(I1
I55378
I55386
tp2755
a(I1
I55388
I55429
tp2756
a(I1
I55431
I55454
tp2757
a(I1
I55456
I55500
tp2758
a(I1
I55502
I55526
tp2759
a(I1
I55528
I55539
tp2760
a(I1
I55541
I55574
tp2761
a(I1
I55576
I55600
tp2762
a(I1
I55602
I55625
tp2763
a(I1
I55627
I55675
tp2764
a(I1
I55677
I55685
tp2765
a(I1
I55687
I55700
tp2766
a(I1
I55702
I55704
tp2767
a(I1
I55706
I55730
tp2768
a(I1
I55732
I55776
tp2769
a(I1
I55778
I55797
tp2770
a(I1
I55799
I55823
tp2771
a(I1
I55825
I55838
tp2772
a(I1
I55840
I55893
tp2773
a(I1
I55895
I55917
tp2774
a(I1
I55923
I55937
tp2775
a(I1
I55941
I55955
tp2776
a(I1
I55957
I56001
tp2777
a(I1
I56003
I56014
tp2778
a(I1
I56016
I56027
tp2779
a(I1
I56029
I56039
tp2780
a(I1
I56041
I56049
tp2781
a(I1
I56051
I56066
tp2782
a(I1
I56068
I56071
tp2783
a(I1
I56073
I56103
tp2784
a(I1
I56105
I56134
tp2785
a(I1
I56140
I56151
tp2786
a(I1
I56155
I56175
tp2787
a(I1
I56179
I56188
tp2788
a(I1
I56190
I56200
tp2789
a(I1
I56202
I56225
tp2790
a(I1
I56227
I56266
tp2791
a(I1
I56268
I56301
tp2792
a(I1
I56303
I56363
tp2793
a(I1
I56367
I56399
tp2794
a(I1
I56401
I56402
tp2795
a(I1
I56404
I56438
tp2796
a(I1
I56440
I56507
tp2797
a(I1
I56513
I56529
tp2798
a(I1
I56533
I56555
tp2799
a(I1
I56557
I56567
tp2800
a(I1
I56569
I56583
tp2801
a(I1
I56585
I56592
tp2802
a(I1
I56594
I56600
tp2803
a(I1
I56602
I56616
tp2804
a(I1
I56618
I56624
tp2805
a(I1
I56626
I56666
tp2806
a(I1
I56668
I56686
tp2807
a(I1
I56688
I56718
tp2808
a(I1
I56720
I56725
tp2809
a(I1
I56727
I56740
tp2810
a(I1
I56742
I56766
tp2811
a(I1
I56768
I56782
tp2812
a(I1
I56784
I56845
tp2813
a(I1
I56851
I56868
tp2814
a(I1
I56870
I56871
tp2815
a(I1
I56873
I56901
tp2816
a(I1
I56903
I56913
tp2817
a(I1
I56915
I56924
tp2818
a(I1
I56926
I56931
tp2819
a(I1
I56933
I56942
tp2820
a(I1
I56944
I56977
tp2821
a(I1
I56979
I56986
tp2822
a(I1
I56988
I57037
tp2823
a(I1
I57039
I57041
tp2824
a(I1
I57043
I57100
tp2825
a(I1
I57102
I57124
tp2826
a(I1
I57126
I57135
tp2827
a(I1
I57139
I57157
tp2828
a(I1
I57159
I57161
tp2829
a(I1
I57163
I57202
tp2830
a(I1
I57204
I57228
tp2831
a(I1
I57232
I57246
tp2832
a(I1
I57248
I57256
tp2833
a(I1
I57258
I57278
tp2834
a(I1
I57280
I57282
tp2835
a(I1
I57284
I57292
tp2836
a(I1
I57294
I57301
tp2837
a(I1
I57303
I57323
tp2838
a(I1
I57325
I57329
tp2839
a(I1
I57331
I57335
tp2840
a(I1
I57337
I57348
tp2841
a(I1
I57354
I57364
tp2842
a(I1
I57368
I57375
tp2843
a(I1
I57377
I57424
tp2844
a(I1
I57428
I57443
tp2845
a(I1
I57445
I57452
tp2846
a(I1
I57454
I57471
tp2847
a(I1
I57473
I57499
tp2848
a(I1
I57501
I57517
tp2849
a(I1
I57519
I57543
tp2850
a(I1
I57545
I57552
tp2851
a(I1
I57554
I57575
tp2852
a(I1
I57577
I57606
tp2853
a(I1
I57610
I57628
tp2854
a(I1
I57630
I57639
tp2855
a(I1
I57641
I57673
tp2856
a(I1
I57675
I57738
tp2857
a(I1
I57742
I57773
tp2858
a(I1
I57775
I57781
tp2859
a(I1
I57783
I57863
tp2860
a(I1
I57865
I57893
tp2861
a(I1
I57899
I57910
tp2862
a(I1
I57914
I57944
tp2863
a(I1
I57946
I57950
tp2864
a(I1
I57952
I57986
tp2865
a(I1
I57988
I58003
tp2866
a(I1
I58005
I58037
tp2867
a(I1
I58039
I58063
tp2868
a(I1
I58065
I58085
tp2869
a(I1
I58089
I58102
tp2870
a(I1
I58104
I58109
tp2871
a(I1
I58111
I58134
tp2872
a(I1
I58136
I58169
tp2873
a(I1
I58171
I58185
tp2874
a(I1
I58187
I58194
tp2875
a(I1
I58196
I58197
tp2876
a(I1
I58199
I58231
tp2877
a(I1
I58233
I58239
tp2878
a(I1
I58241
I58248
tp2879
a(I1
I58250
I58269
tp2880
a(I1
I58271
I58371
tp2881
a(I1
I58373
I58415
tp2882
a(I1
I58419
I58430
tp2883
a(I1
I58432
I58477
tp2884
a(I1
I58483
I58495
tp2885
a(I1
I58497
I58498
tp2886
a(I1
I58500
I58522
tp2887
a(I1
I58524
I58555
tp2888
a(I1
I58557
I58559
tp2889
a(I1
I58561
I58612
tp2890
a(I1
I58614
I58622
tp2891
a(I1
I58624
I58653
tp2892
a(I1
I58657
I58677
tp2893
a(I1
I58679
I58701
tp2894
a(I1
I58703
I58736
tp2895
a(I1
I58738
I58751
tp2896
a(I1
I58755
I58787
tp2897
a(I1
I58789
I58819
tp2898
a(I1
I58821
I58831
tp2899
a(I1
I58833
I58834
tp2900
a(I1
I58838
I58839
tp2901
a(I1
I58841
I58865
tp2902
a(I1
I58867
I58886
tp2903
a(I1
I58888
I58902
tp2904
a(I1
I58904
I58929
tp2905
a(I1
I58931
I58943
tp2906
a(I1
I58947
I58961
tp2907
a(I1
I58963
I58993
tp2908
a(I1
I58999
I59010
tp2909
a(I1
I59014
I59032
tp2910
a(I1
I59034
I59036
tp2911
a(I1
I59038
I59074
tp2912
a(I1
I59076
I59077
tp2913
a(I1
I59079
I59093
tp2914
a(I1
I59095
I59103
tp2915
a(I1
I59105
I59114
tp2916
a(I1
I59116
I59131
tp2917
a(I1
I59133
I59144
tp2918
a(I1
I59146
I59156
tp2919
a(I1
I59160
I59171
tp2920
a(I1
I59173
I59218
tp2921
a(I1
I59222
I59242
tp2922
a(I1
I59244
I59246
tp2923
a(I1
I59248
I59264
tp2924
a(I1
I59266
I59311
tp2925
a(I1
I59313
I59331
tp2926
a(I1
I59333
I59335
tp2927
a(I1
I59337
I59349
tp2928
a(I1
I59351
I59367
tp2929
a(I1
I59373
I59387
tp2930
a(I1
I59391
I59399
tp2931
a(I1
I59401
I59444
tp2932
a(I1
I59446
I59474
tp2933
a(I1
I59478
I59499
tp2934
a(I1
I59501
I59503
tp2935
a(I1
I59505
I59533
tp2936
a(I1
I59535
I59590
tp2937
a(I1
I59592
I59596
tp2938
a(I1
I59598
I59616
tp2939
a(I1
I59622
I59634
tp2940
a(I1
I59638
I59646
tp2941
a(I1
I59648
I59666
tp2942
a(I1
I59668
I59751
tp2943
a(I1
I59753
I59754
tp2944
a(I1
I59756
I59773
tp2945
a(I1
I59775
I59805
tp2946
a(I1
I59807
I59838
tp2947
a(I1
I59840
I59847
tp2948
a(I1
I59849
I59876
tp2949
a(I1
I59878
I59892
tp2950
a(I1
I59894
I59906
tp2951
a(I1
I59908
I59914
tp2952
a(I1
I59916
I59957
tp2953
a(I1
I59963
I59966
tp2954
a(I1
I59970
I59994
tp2955
a(I1
I59996
I60004
tp2956
a(I1
I60006
I60016
tp2957
a(I1
I60018
I60046
tp2958
a(I1
I60048
I60059
tp2959
a(I1
I60061
I60093
tp2960
a(I1
I60097
I60103
tp2961
a(I1
I60105
I60145
tp2962
a(I1
I60149
I60166
tp2963
a(I1
I60168
I60194
tp2964
a(I1
I60196
I60205
tp2965
a(I1
I60207
I60258
tp2966
a(I1
I60260
I60278
tp2967
a(I1
I60284
I60295
tp2968
a(I1
I60299
I60315
tp2969
a(I1
I60317
I60349
tp2970
a(I1
I60351
I60368
tp2971
a(I1
I60370
I60386
tp2972
a(I1
I60388
I60428
tp2973
a(I1
I60430
I60457
tp2974
a(I1
I60459
I60497
tp2975
a(I1
I60503
I60508
tp2976
a(I1
I60512
I60533
tp2977
a(I1
I60535
I60586
tp2978
a(I1
I60588
I60645
tp2979
a(I1
I60647
I60717
tp2980
a(I1
I60723
I60728
tp2981
a(I1
I60732
I60736
tp2982
a(I1
I60738
I60745
tp2983
a(I1
I60747
I60779
tp2984
a(I1
I60781
I60814
tp2985
a(I1
I60816
I60821
tp2986
a(I1
I60823
I60858
tp2987
a(I1
I60860
I60899
tp2988
a(I1
I60905
I60915
tp2989
a(I1
I60919
I60929
tp2990
a(I1
I60931
I60973
tp2991
a(I1
I60975
I60986
tp2992
a(I1
I60988
I60992
tp2993
a(I1
I60994
I61018
tp2994
a(I1
I61020
I61032
tp2995
a(I1
I61034
I61081
tp2996
a(I1
I61083
I61106
tp2997
a(I1
I61108
I61109
tp2998
a(I1
I61111
I61116
tp2999
a(I1
I61118
I61135
tp3000
a(I1
I61137
I61148
tp3001
a(I1
I61150
I61158
tp3002
a(I1
I61162
I61198
tp3003
a(I1
I61200
I61206
tp3004
a(I1
I61208
I61234
tp3005
a(I1
I61236
I61252
tp3006
a(I1
I61254
I61269
tp3007
a(I1
I61271
I61323
tp3008
a(I1
I61329
I61334
tp3009
a(I1
I61338
I61368
tp3010
a(I1
I61370
I61382
tp3011
a(I1
I61384
I61436
tp3012
a(I1
I61438
I61439
tp3013
a(I1
I61441
I61461
tp3014
a(I1
I61463
I61495
tp3015
a(I1
I61497
I61519
tp3016
a(I1
I61521
I61539
tp3017
a(I1
I61541
I61559
tp3018
a(I1
I61561
I61583
tp3019
a(I1
I61585
I61599
tp3020
a(I1
I61603
I61630
tp3021
a(I1
I61632
I61664
tp3022
a(I1
I61666
I61672
tp3023
a(I1
I61678
I61686
tp3024
a(I1
I61690
I61753
tp3025
a(I1
I61755
I61759
tp3026
a(I1
I61761
I61772
tp3027
a(I1
I61774
I61776
tp3028
a(I1
I61778
I61798
tp3029
a(I1
I61800
I61830
tp3030
a(I1
I61834
I61850
tp3031
a(I1
I61852
I61893
tp3032
a(I1
I61899
I61902
tp3033
a(I1
I61906
I61937
tp3034
a(I1
I61939
I61950
tp3035
a(I1
I61952
I61964
tp3036
a(I1
I61966
I61986
tp3037
a(I1
I61988
I62015
tp3038
a(I1
I62017
I62034
tp3039
a(I1
I62036
I62071
tp3040
a(I1
I62077
I62087
tp3041
a(I1
I62091
I62112
tp3042
a(I1
I62114
I62120
tp3043
a(I1
I62122
I62139
tp3044
a(I1
I62141
I62154
tp3045
a(I1
I62156
I62164
tp3046
a(I1
I62168
I62221
tp3047
a(I1
I62223
I62226
tp3048
a(I1
I62228
I62231
tp3049
a(I1
I62233
I62291
tp3050
a(I1
I62293
I62347
tp3051
a(I1
I62349
I62397
tp3052
a(I1
I62403
I62411
tp3053
a(I1
I62415
I62429
tp3054
a(I1
I62431
I62492
tp3055
a(I1
I62494
I62515
tp3056
a(I1
I62517
I62542
tp3057
a(I1
I62544
I62553
tp3058
a(I1
I62555
I62565
tp3059
a(I1
I62567
I62576
tp3060
a(I1
I62578
I62579
tp3061
a(I1
I62589
I62590
tp3062
a(I1
I62592
I62641
tp3063
a(I1
I62643
I62663
tp3064
a(I1
I62669
I62677
tp3065
a(I1
I62681
I62699
tp3066
a(I1
I62701
I62720
tp3067
a(I1
I62722
I62744
tp3068
a(I1
I62748
I62766
tp3069
a(I1
I62768
I62776
tp3070
a(I1
I62778
I62799
tp3071
a(I1
I62801
I62810
tp3072
a(I1
I62812
I62830
tp3073
a(I1
I62832
I62839
tp3074
a(I1
I62843
I62844
tp3075
a(I1
I62846
I62869
tp3076
a(I1
I62871
I62873
tp3077
a(I1
I62877
I62934
tp3078
a(I1
I62936
I62942
tp3079
a(I1
I62944
I62953
tp3080
a(I1
I62955
I62961
tp3081
a(I1
I62963
I62971
tp3082
a(I1
I62973
I62986
tp3083
a(I1
I62988
I63010
tp3084
a(I1
I63012
I63027
tp3085
a(I1
I63029
I63054
tp3086
a(I1
I63056
I63081
tp3087
a(I1
I63087
I63103
tp3088
a(I1
I63107
I63120
tp3089
a(I1
I63122
I63137
tp3090
a(I1
I63139
I63142
tp3091
a(I1
I63146
I63166
tp3092
a(I1
I63168
I63179
tp3093
a(I1
I63181
I63215
tp3094
a(I1
I63217
I63223
tp3095
a(I1
I63225
I63262
tp3096
a(I1
I63264
I63283
tp3097
a(I1
I63285
I63301
tp3098
a(I1
I63305
I63336
tp3099
a(I1
I63338
I63345
tp3100
a(I1
I63347
I63357
tp3101
a(I1
I63359
I63367
tp3102
a(I1
I63369
I63374
tp3103
a(I1
I63376
I63398
tp3104
a(I1
I63404
I63411
tp3105
a(I1
I63415
I63438
tp3106
a(I1
I63440
I63443
tp3107
a(I1
I63445
I63478
tp3108
a(I1
I63480
I63490
tp3109
a(I1
I63494
I63515
tp3110
a(I1
I63517
I63550
tp3111
a(I1
I63554
I63571
tp3112
a(I1
I63573
I63591
tp3113
a(I1
I63593
I63594
tp3114
a(I1
I63596
I63606
tp3115
a(I1
I63608
I63626
tp3116
a(I1
I63628
I63649
tp3117
a(I1
I63651
I63652
tp3118
a(I1
I63654
I63679
tp3119
a(I1
I63681
I63713
tp3120
a(I1
I63719
I63726
tp3121
a(I1
I63730
I63828
tp3122
a(I1
I63830
I63833
tp3123
a(I1
I63835
I63840
tp3124
a(I1
I63842
I63847
tp3125
a(I1
I63849
I63850
tp3126
a(I1
I63852
I63862
tp3127
a(I1
I63864
I63879
tp3128
a(I1
I63881
I63890
tp3129
a(I1
I63892
I63900
tp3130
a(I1
I63902
I63979
tp3131
a(I1
I63981
I63989
tp3132
a(I1
I63991
I64000
tp3133
a(I1
I64002
I64008
tp3134
a(I1
I64010
I64055
tp3135
a(I1
I64057
I64066
tp3136
a(I1
I64068
I64086
tp3137
a(I1
I64088
I64130
tp3138
a(I1
I64132
I64185
tp3139
a(I1
I64187
I64206
tp3140
a(I1
I64208
I64219
tp3141
a(I1
I64221
I64226
tp3142
a(I1
I64228
I64260
tp3143
a(I1
I64262
I64265
tp3144
a(I1
I64267
I64284
tp3145
a(I1
I64286
I64314
tp3146
a(I1
I64320
I64329
tp3147
a(I1
I64333
I64341
tp3148
a(I1
I64343
I64380
tp3149
a(I1
I64382
I64414
tp3150
a(I1
I64416
I64466
tp3151
a(I1
I64468
I64494
tp3152
a(I1
I64496
I64497
tp3153
a(I1
I64499
I64509
tp3154
a(I1
I64511
I64524
tp3155
a(I1
I64526
I64555
tp3156
a(I1
I64557
I64568
tp3157
a(I1
I64574
I64583
tp3158
a(I1
I64587
I64595
tp3159
a(I1
I64597
I64617
tp3160
a(I1
I64621
I64643
tp3161
a(I1
I64645
I64652
tp3162
a(I1
I64654
I64668
tp3163
a(I1
I64670
I64706
tp3164
a(I1
I64708
I64779
tp3165
a(I1
I64781
I64810
tp3166
a(I1
I64812
I64840
tp3167
a(I1
I64844
I64861
tp3168
a(I1
I64863
I64875
tp3169
a(I1
I64877
I64881
tp3170
a(I1
I64883
I64895
tp3171
a(I1
I64897
I64929
tp3172
a(I1
I64935
I64950
tp3173
a(I1
I64954
I64982
tp3174
a(I1
I64984
I64988
tp3175
a(I1
I64990
I64992
tp3176
a(I1
I64994
I65019
tp3177
a(I1
I65021
I65037
tp3178
a(I1
I65039
I65061
tp3179
a(I1
I65063
I65070
tp3180
a(I1
I65074
I65082
tp3181
a(I1
I65084
I65102
tp3182
a(I1
I65104
I65133
tp3183
a(I1
I65135
I65172
tp3184
a(I1
I65174
I65198
tp3185
a(I1
I65200
I65204
tp3186
a(I1
I65206
I65209
tp3187
a(I1
I65211
I65226
tp3188
a(I1
I65228
I65236
tp3189
a(I1
I65238
I65299
tp3190
a(I1
I65305
I65317
tp3191
a(I1
I65321
I65341
tp3192
a(I1
I65343
I65351
tp3193
a(I1
I65353
I65371
tp3194
a(I1
I65373
I65389
tp3195
a(I1
I65393
I65437
tp3196
a(I1
I65439
I65463
tp3197
a(I1
I65465
I65481
tp3198
a(I1
I65483
I65485
tp3199
a(I1
I65487
I65511
tp3200
a(I1
I65513
I65528
tp3201
a(I1
I65532
I65555
tp3202
a(I1
I65557
I65560
tp3203
a(I1
I65562
I65586
tp3204
a(I1
I65588
I65642
tp3205
a(I1
I65644
I65658
tp3206
a(I1
I65664
I65680
tp3207
a(I1
I65684
I65702
tp3208
a(I1
I65704
I65706
tp3209
a(I1
I65708
I65721
tp3210
a(I1
I65723
I65733
tp3211
a(I1
I65735
I65752
tp3212
a(I1
I65754
I65769
tp3213
a(I1
I65771
I65772
tp3214
a(I1
I65774
I65829
tp3215
a(I1
I65831
I65934
tp3216
a(I1
I65936
I65944
tp3217
a(I1
I65950
I65962
tp3218
a(I1
I65966
I65991
tp3219
a(I1
I65993
I65995
tp3220
a(I1
I65997
I66033
tp3221
a(I1
I66035
I66041
tp3222
a(I1
I66043
I66068
tp3223
a(I1
I66070
I66078
tp3224
a(I1
I66082
I66101
tp3225
a(I1
I66103
I66113
tp3226
a(I1
I66115
I66116
tp3227
a(I1
I66118
I66150
tp3228
a(I1
I66152
I66181
tp3229
a(I1
I66183
I66199
tp3230
a(I1
I66201
I66202
tp3231
a(I1
I66204
I66228
tp3232
a(I1
I66230
I66261
tp3233
a(I1
I66267
I66281
tp3234
a(I1
I66285
I66300
tp3235
a(I1
I66302
I66314
tp3236
a(I1
I66316
I66345
tp3237
a(I1
I66347
I66369
tp3238
a(I1
I66371
I66375
tp3239
a(I1
I66377
I66391
tp3240
a(I1
I66393
I66431
tp3241
a(I1
I66433
I66447
tp3242
a(I1
I66449
I66464
tp3243
a(I1
I66466
I66484
tp3244
a(I1
I66486
I66512
tp3245
a(I1
I66514
I66534
tp3246
a(I1
I66538
I66552
tp3247
a(I1
I66554
I66557
tp3248
a(I1
I66559
I66580
tp3249
a(I1
I66582
I66608
tp3250
a(I1
I66614
I66629
tp3251
a(I1
I66633
I66641
tp3252
a(I1
I66643
I66664
tp3253
a(I1
I66666
I66697
tp3254
a(I1
I66699
I66706
tp3255
a(I1
I66708
I66709
tp3256
a(I1
I66711
I66782
tp3257
a(I1
I66784
I66806
tp3258
a(I1
I66810
I66850
tp3259
a(I1
I66852
I66871
tp3260
a(I1
I66873
I66910
tp3261
a(I1
I66912
I66934
tp3262
a(I1
I66936
I66982
tp3263
a(I1
I66984
I66986
tp3264
a(I1
I66988
I67017
tp3265
a(I1
I67019
I67051
tp3266
a(I1
I67057
I67065
tp3267
a(I1
I67069
I67082
tp3268
a(I1
I67084
I67125
tp3269
a(I1
I67129
I67142
tp3270
a(I1
I67144
I67153
tp3271
a(I1
I67155
I67169
tp3272
a(I1
I67171
I67173
tp3273
a(I1
I67175
I67202
tp3274
a(I1
I67204
I67240
tp3275
a(I1
I67242
I67260
tp3276
a(I1
I67262
I67263
tp3277
a(I1
I67265
I67290
tp3278
a(I1
I67292
I67307
tp3279
a(I1
I67309
I67351
tp3280
a(I1
I67357
I67362
tp3281
a(I1
I67366
I67397
tp3282
a(I1
I67401
I67424
tp3283
a(I1
I67426
I67434
tp3284
a(I1
I67436
I67473
tp3285
a(I1
I67477
I67515
tp3286
a(I1
I67517
I67529
tp3287
a(I1
I67533
I67555
tp3288
a(I1
I67557
I67568
tp3289
a(I1
I67570
I67579
tp3290
a(I1
I67581
I67586
tp3291
a(I1
I67588
I67614
tp3292
a(I1
I67616
I67649
tp3293
a(I1
I67655
I67659
tp3294
a(I1
I67663
I67690
tp3295
a(I1
I67692
I67751
tp3296
a(I1
I67753
I67807
tp3297
a(I1
I67809
I67818
tp3298
a(I1
I67820
I67824
tp3299
a(I1
I67826
I67842
tp3300
a(I1
I67844
I67862
tp3301
a(I1
I67864
I67898
tp3302
a(I1
I67900
I67909
tp3303
a(I1
I67911
I67943
tp3304
a(I1
I67949
I67955
tp3305
a(I1
I67959
I68004
tp3306
a(I1
I68006
I68009
tp3307
a(I1
I68011
I68081
tp3308
a(I1
I68083
I68118
tp3309
a(I1
I68120
I68142
tp3310
a(I1
I68144
I68157
tp3311
a(I1
I68159
I68168
tp3312
a(I1
I68170
I68203
tp3313
a(I1
I68205
I68219
tp3314
a(I1
I68225
I68230
tp3315
a(I1
I68234
I68251
tp3316
a(I1
I68253
I68267
tp3317
a(I1
I68269
I68276
tp3318
a(I1
I68278
I68306
tp3319
a(I1
I68308
I68319
tp3320
a(I1
I68321
I68335
tp3321
a(I1
I68339
I68355
tp3322
a(I1
I68357
I68434
tp3323
a(I1
I68438
I68458
tp3324
a(I1
I68460
I68462
tp3325
a(I1
I68464
I68499
tp3326
a(I1
I68501
I68502
tp3327
a(I1
I68504
I68538
tp3328
a(I1
I68540
I68543
tp3329
a(I1
I68545
I68578
tp3330
a(I1
I68580
I68591
tp3331
a(I1
I68593
I68629
tp3332
a(I1
I68635
I68642
tp3333
a(I1
I68646
I68662
tp3334
a(I1
I68664
I68668
tp3335
a(I1
I68670
I68681
tp3336
a(I1
I68683
I68686
tp3337
a(I1
I68688
I68719
tp3338
a(I1
I68721
I68746
tp3339
a(I1
I68750
I68761
tp3340
a(I1
I68763
I68771
tp3341
a(I1
I68773
I68792
tp3342
a(I1
I68794
I68822
tp3343
a(I1
I68826
I68843
tp3344
a(I1
I68845
I68846
tp3345
a(I1
I68848
I68862
tp3346
a(I1
I68864
I68871
tp3347
a(I1
I68873
I68898
tp3348
a(I1
I68900
I68917
tp3349
a(I1
I68919
I68936
tp3350
a(I1
I68938
I68993
tp3351
a(I1
I68999
I69005
tp3352
a(I1
I69009
I69039
tp3353
a(I1
I69041
I69045
tp3354
a(I1
I69047
I69052
tp3355
a(I1
I69054
I69077
tp3356
a(I1
I69079
I69111
tp3357
a(I1
I69113
I69139
tp3358
a(I1
I69141
I69167
tp3359
a(I1
I69171
I69187
tp3360
a(I1
I69189
I69192
tp3361
a(I1
I69194
I69219
tp3362
a(I1
I69221
I69268
tp3363
a(I1
I69274
I69284
tp3364
a(I1
I69288
I69310
tp3365
a(I1
I69312
I69323
tp3366
a(I1
I69325
I69326
tp3367
a(I1
I69328
I69346
tp3368
a(I1
I69348
I69374
tp3369
a(I1
I69376
I69377
tp3370
a(I1
I69379
I69417
tp3371
a(I1
I69419
I69437
tp3372
a(I1
I69439
I69445
tp3373
a(I1
I69449
I69475
tp3374
a(I1
I69477
I69486
tp3375
a(I1
I69488
I69519
tp3376
a(I1
I69521
I69537
tp3377
a(I1
I69539
I69555
tp3378
a(I1
I69557
I69591
tp3379
a(I1
I69597
I69604
tp3380
a(I1
I69608
I69628
tp3381
a(I1
I69630
I69638
tp3382
a(I1
I69640
I69653
tp3383
a(I1
I69655
I69656
tp3384
a(I1
I69658
I69709
tp3385
a(I1
I69711
I69733
tp3386
a(I1
I69737
I69748
tp3387
a(I1
I69750
I69767
tp3388
a(I1
I69769
I69770
tp3389
a(I1
I69772
I69799
tp3390
a(I1
I69801
I69820
tp3391
a(I1
I69824
I69832
tp3392
a(I1
I69834
I69835
tp3393
a(I1
I69837
I69855
tp3394
a(I1
I69857
I69878
tp3395
a(I1
I69882
I69896
tp3396
a(I1
I69898
I69902
tp3397
a(I1
I69904
I69927
tp3398
a(I1
I69929
I69944
tp3399
a(I1
I69946
I69965
tp3400
a(I1
I69967
I70017
tp3401
a(I1
I70023
I70033
tp3402
a(I1
I70037
I70047
tp3403
a(I1
I70049
I70079
tp3404
a(I1
I70083
I70098
tp3405
a(I1
I70100
I70108
tp3406
a(I1
I70110
I70126
tp3407
a(I1
I70128
I70163
tp3408
a(I1
I70165
I70179
tp3409
a(I1
I70181
I70193
tp3410
a(I1
I70195
I70206
tp3411
a(I1
I70210
I70250
tp3412
a(I1
I70252
I70253
tp3413
a(I1
I70255
I70281
tp3414
a(I1
I70283
I70304
tp3415
a(I1
I70306
I70311
tp3416
a(I1
I70313
I70354
tp3417
a(I1
I70356
I70363
tp3418
a(I1
I70365
I70372
tp3419
a(I1
I70378
I70386
tp3420
a(I1
I70390
I70406
tp3421
a(I1
I70408
I70430
tp3422
a(I1
I70434
I70448
tp3423
a(I1
I70450
I70475
tp3424
a(I1
I70477
I70492
tp3425
a(I1
I70496
I70508
tp3426
a(I1
I70510
I70515
tp3427
a(I1
I70517
I70533
tp3428
a(I1
I70535
I70547
tp3429
a(I1
I70549
I70572
tp3430
a(I1
I70576
I70599
tp3431
a(I1
I70601
I70602
tp3432
a(I1
I70604
I70632
tp3433
a(I1
I70634
I70662
tp3434
a(I1
I70664
I70686
tp3435
a(I1
I70688
I70716
tp3436
a(I1
I70718
I70746
tp3437
a(I1
I70752
I70758
tp3438
a(I1
I70762
I70773
tp3439
a(I1
I70775
I70828
tp3440
a(I1
I70832
I70850
tp3441
a(I1
I70852
I70867
tp3442
a(I1
I70869
I70879
tp3443
a(I1
I70881
I70908
tp3444
a(I1
I70910
I70951
tp3445
a(I1
I70955
I70976
tp3446
a(I1
I70978
I71011
tp3447
a(I1
I71013
I71035
tp3448
a(I1
I71037
I71058
tp3449
a(I1
I71064
I71069
tp3450
a(I1
I71073
I71081
tp3451
a(I1
I71083
I71131
tp3452
a(I1
I71133
I71147
tp3453
a(I1
I71151
I71171
tp3454
a(I1
I71173
I71225
tp3455
a(I1
I71227
I71245
tp3456
a(I1
I71249
I71262
tp3457
a(I1
I71264
I71285
tp3458
a(I1
I71287
I71289
tp3459
a(I1
I71291
I71317
tp3460
a(I1
I71319
I71337
tp3461
a(I1
I71343
I71352
tp3462
a(I1
I71356
I71382
tp3463
a(I1
I71384
I71411
tp3464
a(I1
I71413
I71418
tp3465
a(I1
I71420
I71430
tp3466
a(I1
I71432
I71456
tp3467
a(I1
I71458
I71474
tp3468
a(I1
I71476
I71483
tp3469
a(I1
I71485
I71498
tp3470
a(I1
I71502
I71517
tp3471
a(I1
I71519
I71529
tp3472
a(I1
I71531
I71562
tp3473
a(I1
I71564
I71581
tp3474
a(I1
I71585
I71594
tp3475
a(I1
I71596
I71649
tp3476
a(I1
I71655
I71669
tp3477
a(I1
I71673
I71694
tp3478
a(I1
I71696
I71727
tp3479
a(I1
I71729
I71736
tp3480
a(I1
I71738
I71767
tp3481
a(I1
I71769
I71810
tp3482
a(I1
I71814
I71839
tp3483
a(I1
I71841
I71864
tp3484
a(I1
I71866
I71928
tp3485
a(I1
I71930
I71931
tp3486
a(I1
I71933
I71942
tp3487
a(I1
I71944
I71951
tp3488
a(I1
I71953
I71968
tp3489
a(I1
I71970
I71974
tp3490
a(I1
I71976
I71987
tp3491
a(I1
I71989
I72003
tp3492
a(I1
I72009
I72036
tp3493
a(I1
I72040
I72071
tp3494
a(I1
I72073
I72081
tp3495
a(I1
I72083
I72097
tp3496
a(I1
I72101
I72108
tp3497
a(I1
I72110
I72184
tp3498
a(I1
I72186
I72193
tp3499
a(I1
I72195
I72214
tp3500
a(I1
I72218
I72279
tp3501
a(I1
I72281
I72286
tp3502
a(I1
I72288
I72300
tp3503
a(I1
I72304
I72339
tp3504
a(I1
I72341
I72464
tp3505
a(I1
I72466
I72532
tp3506
a(I1
I72534
I72558
tp3507
a(I1
I72560
I72561
tp3508
a(I1
I72563
I72573
tp3509
a(I1
I72575
I72591
tp3510
a(I1
I72593
I72609
tp3511
a(I1
I72611
I72614
tp3512
a(I1
I72618
I72626
tp3513
a(I1
I72628
I72633
tp3514
a(I1
I72635
I72676
tp3515
a(I1
I72678
I72696
tp3516
a(I1
I72698
I72742
tp3517
a(I1
I72744
I72756
tp3518
a(I1
I72758
I72769
tp3519
a(I1
I72775
I72786
tp3520
a(I1
I72790
I72807
tp3521
a(I1
I72809
I72828
tp3522
a(I1
I72830
I72840
tp3523
a(I1
I72842
I72847
tp3524
a(I1
I72849
I72868
tp3525
a(I1
I72872
I72889
tp3526
a(I1
I72891
I72893
tp3527
a(I1
I72897
I72943
tp3528
a(I1
I72945
I72955
tp3529
a(I1
I72957
I73009
tp3530
a(I1
I73011
I73022
tp3531
a(I1
I73024
I73027
tp3532
a(I1
I73029
I73040
tp3533
a(I1
I73042
I73046
tp3534
a(I1
I73048
I73049
tp3535
a(I1
I73051
I73071
tp3536
a(I1
I73073
I73096
tp3537
a(I1
I73098
I73117
tp3538
a(I1
I73119
I73122
tp3539
a(I1
I73124
I73133
tp3540
a(I1
I73135
I73172
tp3541
a(I1
I73174
I73209
tp3542
a(I1
I73215
I73224
tp3543
a(I1
I73228
I73253
tp3544
a(I1
I73255
I73256
tp3545
a(I1
I73258
I73265
tp3546
a(I1
I73267
I73306
tp3547
a(I1
I73308
I73368
tp3548
a(I1
I73370
I73381
tp3549
a(I1
I73383
I73399
tp3550
a(I1
I73403
I73409
tp3551
a(I1
I73411
I73412
tp3552
a(I1
I73414
I73447
tp3553
a(I1
I73449
I73464
tp3554
a(I1
I73466
I73482
tp3555
a(I1
I73484
I73491
tp3556
a(I1
I73493
I73534
tp3557
a(I1
I73536
I73548
tp3558
a(I1
I73550
I73570
tp3559
a(I1
I73576
I73590
tp3560
a(I1
I73594
I73612
tp3561
a(I1
I73614
I73638
tp3562
a(I1
I73640
I73689
tp3563
a(I1
I73691
I73713
tp3564
a(I1
I73717
I73729
tp3565
a(I1
I73731
I73734
tp3566
a(I1
I73736
I73751
tp3567
a(I1
I73753
I73761
tp3568
a(I1
I73763
I73770
tp3569
a(I1
I73772
I73787
tp3570
a(I1
I73789
I73804
tp3571
a(I1
I73806
I73821
tp3572
a(I1
I73823
I73836
tp3573
a(I1
I73840
I73867
tp3574
a(I1
I73869
I73878
tp3575
a(I1
I73880
I73887
tp3576
a(I1
I73889
I73928
tp3577
a(I1
I73930
I73959
tp3578
a(I1
I73963
I73982
tp3579
a(I1
I73984
I73993
tp3580
a(I1
I73995
I74006
tp3581
a(I1
I74008
I74041
tp3582
a(I1
I74047
I74061
tp3583
a(I1
I74065
I74075
tp3584
a(I1
I74077
I74122
tp3585
a(I1
I74124
I74125
tp3586
a(I1
I74127
I74136
tp3587
a(I1
I74138
I74188
tp3588
a(I1
I74190
I74221
tp3589
a(I1
I74223
I74251
tp3590
a(I1
I74253
I74269
tp3591
a(I1
I74271
I74290
tp3592
a(I1
I74292
I74294
tp3593
a(I1
I74296
I74299
tp3594
a(I1
I74301
I74334
tp3595
a(I1
I74336
I74352
tp3596
a(I1
I74354
I74368
tp3597
a(I1
I74370
I74391
tp3598
a(I1
I74393
I74413
tp3599
a(I1
I74415
I74418
tp3600
a(I1
I74420
I74441
tp3601
a(I1
I74443
I74475
tp3602
a(I1
I74477
I74484
tp3603
a(I1
I74486
I74492
tp3604
a(I1
I74494
I74517
tp3605
a(I1
I74519
I74521
tp3606
a(I1
I74523
I74552
tp3607
a(I1
I74554
I74572
tp3608
a(I1
I74574
I74589
tp3609
a(I1
I74591
I74596
tp3610
a(I1
I74598
I74606
tp3611
a(I1
I74608
I74627
tp3612
a(I1
I74629
I74656
tp3613
a(I1
I74658
I74692
tp3614
a(I1
I74694
I74716
tp3615
a(I1
I74718
I74722
tp3616
a(I1
I74724
I74767
tp3617
a(I1
I74769
I74790
tp3618
a(I1
I74792
I74830
tp3619
a(I1
I74832
I74837
tp3620
a(I1
I74839
I74865
tp3621
a(I1
I74867
I74888
tp3622
a(I1
I74890
I74916
tp3623
a(I1
I74918
I74928
tp3624
a(I1
I74932
I74968
tp3625
a(I1
I74970
I75000
tp3626
a(I1
I75002
I75020
tp3627
a(I1
I75022
I75040
tp3628
a(I1
I75042
I75050
tp3629
a(I1
I75052
I75056
tp3630
a(I1
I75058
I75070
tp3631
a(I1
I75072
I75083
tp3632
a(I1
I75085
I75118
tp3633
a(I1
I75124
I75139
tp3634
a(I1
I75143
I75151
tp3635
a(I1
I75153
I75174
tp3636
a(I1
I75176
I75178
tp3637
a(I1
I75180
I75204
tp3638
a(I1
I75206
I75234
tp3639
a(I1
I75236
I75254
tp3640
a(I1
I75256
I75271
tp3641
a(I1
I75273
I75292
tp3642
a(I1
I75294
I75297
tp3643
a(I1
I75299
I75318
tp3644
a(I1
I75320
I75346
tp3645
a(I1
I75348
I75357
tp3646
a(I1
I75359
I75362
tp3647
a(I1
I75364
I75387
tp3648
a(I1
I75391
I75416
tp3649
a(I1
I75418
I75435
tp3650
a(I1
I75437
I75464
tp3651
a(I1
I75466
I75480
tp3652
a(I1
I75482
I75509
tp3653
a(I1
I75511
I75520
tp3654
a(I1
I75522
I75525
tp3655
a(I1
I75527
I75560
tp3656
a(I1
I75562
I75599
tp3657
a(I1
I75601
I75633
tp3658
a(I1
I75635
I75644
tp3659
a(I1
I75646
I75648
tp3660
a(I1
I75650
I75682
tp3661
a(I1
I75684
I75691
tp3662
a(I1
I75693
I75737
tp3663
a(I1
I75739
I75769
tp3664
a(I1
I75771
I75773
tp3665
a(I1
I75775
I75790
tp3666
a(I1
I75792
I75820
tp3667
a(I1
I75822
I75828
tp3668
a(I1
I75830
I75847
tp3669
a(I1
I75849
I75882
tp3670
a(I1
I75884
I75922
tp3671
a(I1
I75924
I75933
tp3672
a(I1
I75935
I75942
tp3673
a(I1
I75944
I75968
tp3674
a(I1
I75970
I75985
tp3675
a(I1
I75987
I76000
tp3676
a(I1
I76002
I76017
tp3677
a(I1
I76019
I76042
tp3678
a(I1
I76044
I76059
tp3679
a(I1
I76061
I76077
tp3680
a(I1
I76079
I76086
tp3681
a(I1
I76088
I76099
tp3682
a(I1
I76101
I76112
tp3683
a(I1
I76114
I76117
tp3684
a(I1
I76123
I76133
tp3685
a(I1
I76137
I76145
tp3686
a(I1
I76147
I76173
tp3687
a(I1
I76175
I76225
tp3688
a(I1
I76229
I76235
tp3689
a(I1
I76237
I76280
tp3690
a(I1
I76282
I76320
tp3691
a(I1
I76322
I76348
tp3692
a(I1
I76350
I76374
tp3693
a(I1
I76378
I76385
tp3694
a(I1
I76387
I76394
tp3695
a(I1
I76396
I76425
tp3696
a(I1
I76429
I76448
tp3697
a(I1
I76450
I76475
tp3698
a.